ARM Linker, 4.1 [Build 894] [Professional]

==============================================================================

Section Cross References

    startup_lpc17xx.o(STACK) refers (Special) to heapauxi.o(.text) for __use_two_region_memory
    startup_lpc17xx.o(HEAP) refers (Special) to heapauxi.o(.text) for __use_two_region_memory
    startup_lpc17xx.o(RESET) refers (Special) to heapauxi.o(.text) for __use_two_region_memory
    startup_lpc17xx.o(RESET) refers to startup_lpc17xx.o(STACK) for __initial_sp
    startup_lpc17xx.o(RESET) refers to startup_lpc17xx.o(.text) for Reset_Handler
    startup_lpc17xx.o(RESET) refers to delay.o(.text) for SysTick_Handler
    startup_lpc17xx.o(RESET) refers to ctime.o(.text) for TIMER0_IRQHandler
    startup_lpc17xx.o(RESET) refers to uart.o(.text) for UART0_IRQHandler
    startup_lpc17xx.o(RESET) refers to pwm.o(.text) for PWM1_IRQHandler
    startup_lpc17xx.o(RESET) refers to i2c.o(.text) for I2C0_IRQHandler
    startup_lpc17xx.o(RESET) refers to extint.o(.text) for EINT1_IRQHandler
    startup_lpc17xx.o(RESET) refers to cgpioirq.o(.text) for EINT3_IRQHandler
    startup_lpc17xx.o(.ARM.__at_0x02FC) refers (Special) to heapauxi.o(.text) for __use_two_region_memory
    startup_lpc17xx.o(.text) refers (Special) to heapauxi.o(.text) for __use_two_region_memory
    startup_lpc17xx.o(.text) refers to system_lpc17xx.o(.text) for SystemInit
    startup_lpc17xx.o(.text) refers to __main.o(!!!main) for __main
    startup_lpc17xx.o(.text) refers to startup_lpc17xx.o(HEAP) for Heap_Mem
    startup_lpc17xx.o(.text) refers to startup_lpc17xx.o(STACK) for Stack_Mem
    system_lpc17xx.o(.text) refers to system_lpc17xx.o(.data) for SystemFrequency
    main.o(.text) refers to system_lpc17xx.o(.text) for SystemClockUpdate
    main.o(.text) refers to crunctrl.o(.text) for Init_CRunCtrl
    main.o(.text) refers to uart.o(.text) for lcd_printf
    delay.o(.text) refers to delay.o(.data) for msTicks
    i2c.o(.text) refers to i2c.o(.data) for I2C_end
    uart.o(.text) refers to ssp.o(.text) for M25P80_Read_1Byte
    uart.o(.text) refers to ccomhandle.o(.text) for SetConvertdata
    uart.o(.text) refers to ccompara.o(.text) for data_from_data0
    uart.o(.text) refers to cgrapparam.o(.text) for GetComRegFlag
    uart.o(.text) refers to ccompinten.o(.text) for CGetIntenFlag
    uart.o(.text) refers to ctasksure.o(.text) for Get_Note_Flag
    uart.o(.text) refers to uart.o(.bss) for data3
    uart.o(.text) refers to uart.o(.data) for tp
    uart.o(.text) refers to system_lpc17xx.o(.data) for SystemFrequency
    ctime.o(.text) refers to extint.o(.text) for Eint_Dis
    ctime.o(.text) refers to ctimectrl.o(.text) for T0Int_CTimeCtrl
    ctime.o(.text) refers to key.o(.text) for Scan_Key
    ctime.o(.text) refers to cled.o(.text) for Led_Wireless_On
    ctime.o(.text) refers to ctime.o(.data) for vTimeTickCounter
    ctimedef.o(.text) refers to ctimedef.o(.data) for vCurTime0Def
    ctimedef.o(.text) refers to system_lpc17xx.o(.data) for SystemFrequency
    pwm.o(.text) refers to pwm.o(.data) for match_counter1
    extint.o(.text) refers to uart.o(.text) for uart_all_disable
    extint.o(.text) refers to ctime.o(.text) for timern_disable
    extint.o(.text) refers to i2c.o(.text) for i2c0_disable
    extint.o(.text) refers to pwm.o(.text) for pwm1_disable
    extint.o(.text) refers to extint.o(.data) for Extint1_flag
    cgpioirq.o(.text) refers to csetcurrent.o(.text) for State_0mA
    cgpioirq.o(.text) refers to clpckctrl.o(.text) for SetPer_CLpCkCtrl
    lcd.o(.text) refers to lcd.o(.constdata) for acHZK16F
    lcd.o(.text) refers to lcd.o(.data) for Hzk1
    pcf8563.o(.text) refers to i2c.o(.text) for I2C_WriteNByte
    pcf8563.o(.text) refers to pcf8563.o(.data) for TimeAndDate
    key.o(.text) refers to ctime.o(.text) for OnLCD
    key.o(.text) refers to ccomhandle.o(.text) for GetDisplay_alarm_flag
    key.o(.text) refers to cled.o(.text) for Led_Silence_Off
    key.o(.text) refers to pwm.o(.text) for PWM1_Stop
    key.o(.text) refers to ccompara.o(.text) for SetAlarmFlag
    key.o(.text) refers to ckeycounter.o(.text) for GetPasswordFlag
    key.o(.text) refers to key.o(.data) for vBackValue
    key.o(.text) refers to key.o(.bss) for vKeyCounter
    ccomhandle.o(.text) refers to clpscanctrl.o(.text) for GetSys_CLpScanCtrl
    ccomhandle.o(.text) refers to uart.o(.text) for UARTSend
    ccomhandle.o(.text) refers to cflashparam.o(.text) for get_comp_partnumber
    ccomhandle.o(.text) refers to cgrapparam.o(.text) for AddCompRegNum
    ccomhandle.o(.text) refers to rt_memclr.o(.text) for __aeabi_memclr
    ccomhandle.o(.text) refers to ctime.o(.text) for OnLCD
    ccomhandle.o(.text) refers to pcf8563.o(.text) for getcurrent_date
    ccomhandle.o(.text) refers to cintstend.o(.text) for EndInt
    ccomhandle.o(.text) refers to ccompreg.o(.text) for CompReg_menu
    ccomhandle.o(.text) refers to ccomhandle.o(.data) for FirstAlarm_Flag
    ccomhandle.o(.text) refers to ccomhandle.o(.bss) for UartTxbuf
    ccomhandle.o(.text) refers to cnodeinfo.o(.text) for SetReg_CNodeInfo
    ccomhandle.o(.text) refers to extint.o(.text) for Eint_EnAll_Exuart
    ccomhandle.o(.text) refers to ccompinten.o(.text) for CompInten_Menu
    ccomhandle.o(.text) refers to crelay.o(.text) for Fire_Relay_On
    ccomhandle.o(.text) refers to cled.o(.text) for Led_Fire_On
    ccomhandle.o(.text) refers to ckeycounter.o(.text) for SetMenuFlag
    ccomhandle.o(.text) refers to rt_memcpy_v6.o(.text) for __aeabi_memcpy
    ccomhandle.o(.text) refers to runfunction.o(.text) for set_menu_alarm_info
    ccomhandle.o(.text) refers to ccompara.o(.text) for SetReleaseFlag
    ccomhandle.o(.text) refers to csendto195.o(.text) for Query_ByUart0
    ccomhandle.o(.text) refers to ccomhandle.o(.constdata) for fault_restore_cfg
    ccompara.o(.text) refers to uart.o(.text) for GetCom1Data0
    ccompara.o(.text) refers to cflashparam.o(.text) for GetDepCompSum
    ccompara.o(.text) refers to cnodeinfo.o(.text) for SetReg_CNodeInfo
    ccompara.o(.text) refers to ccomhandle.o(.text) for SetSum
    ccompara.o(.text) refers to ccompara.o(.data) for dataHeart
    ccompara.o(.text) refers to ccompara.o(.bss) for data
    caddresscount.o(.text) refers to cflashparam.o(.text) for get_firealarm_nums
    caddresscount.o(.text) refers to uart.o(.text) for lcd_printf
    caddresscount.o(.text) refers to ctasksure.o(.text) for reset_ok
    caddresscount.o(.text) refers to caddresscount.o(.data) for alarm_circuit_flag
    csendto195.o(.text) refers to uart.o(.text) for UARTSend
    csendto195.o(.text) refers to csendto195.o(.bss) for Send195
    cgetgrap.o(.text) refers to mainmenu.o(.text) for Main_Menu
    cgetgrap.o(.text) refers to setmenu.o(.text) for Set_Menu
    cgetgrap.o(.text) refers to checkmenu.o(.text) for Check_Menu
    cgetgrap.o(.text) refers to testmenu.o(.text) for Test_Menu
    ckeycounter.o(.text) refers to ckeycounter.o(.data) for vCounter
    ctaskdown.o(.text) refers to ckeycounter.o(.text) for GetCounter1
    ctaskdown.o(.text) refers to cgetgrap.o(.text) for GetSetGrap
    ctaskdown.o(.text) refers to uart.o(.text) for lcd_printf
    ctaskdown.o(.text) refers to ctasksure.o(.text) for SetSpeaker_OFF
    ctaskdown.o(.text) refers to cgrapparam.o(.text) for GetIntenFlag
    ctaskdown.o(.text) refers to ccompinten.o(.text) for CompInten_Menu
    ctaskdown.o(.text) refers to cflashparam.o(.text) for GetHistConter
    ctaskdown.o(.text) refers to chistorylist.o(.text) for menu_history_over
    ctaskdown.o(.text) refers to lcd.o(.text) for ClearScreen
    ctaskdown.o(.text) refers to cdatemod.o(.text) for DateMod_Menu
    ctaskdown.o(.text) refers to ccompset.o(.text) for CompSet_Menu
    ctaskdown.o(.text) refers to ccompreg.o(.text) for CompReg_menu
    ctaskdown.o(.text) refers to ctaskdown.o(.data) for vHisCountDown
    ctaskdown.o(.text) refers to ccomhandle.o(.bss) for histinfo
    ctaskdown.o(.text) refers to ctasksure.o(.data) for timedate
    ctaskdown.o(.text) refers to clocalset.o(.text) for Local_Menu
    ctaskreturn.o(.text) refers to ckeycounter.o(.text) for GetCounter1
    ctaskreturn.o(.text) refers to ctasksure.o(.text) for clr_enter_flag
    ctaskreturn.o(.text) refers to mainmenu.o(.text) for Main_Menu
    ctaskreturn.o(.text) refers to setmenu.o(.text) for Set_Menu
    ctaskreturn.o(.text) refers to cgrapparam.o(.text) for SetLocalParaSel
    ctaskreturn.o(.text) refers to lcd.o(.text) for ClearScreen
    ctaskreturn.o(.text) refers to checkmenu.o(.text) for Check_Menu
    ctaskreturn.o(.text) refers to ctaskdown.o(.text) for ClrHisCountDown
    ctaskreturn.o(.text) refers to cled.o(.text) for Led_Off
    ctaskreturn.o(.text) refers to pwm.o(.text) for PWM1_Stop
    ctaskreturn.o(.text) refers to testmenu.o(.text) for Test_Menu
    ctaskreturn.o(.text) refers to ccompinten.o(.text) for CSetIntenFlag
    ctasksure.o(.text) refers to uart.o(.text) for lcd_printf
    ctasksure.o(.text) refers to ckeycounter.o(.text) for GetCounter2
    ctasksure.o(.text) refers to cgetgrap.o(.text) for GetSetGrap
    ctasksure.o(.text) refers to extint.o(.text) for Eint_Dis
    ctasksure.o(.text) refers to clpscanctrl.o(.text) for ClrSys_CLpScanCtrl
    ctasksure.o(.text) refers to lcd.o(.text) for ClearScreen
    ctasksure.o(.text) refers to ccomhandle.o(.text) for UartBindSend
    ctasksure.o(.text) refers to cled.o(.text) for Led_Fault_Off
    ctasksure.o(.text) refers to crelay.o(.text) for Fire_Relay_Off
    ctasksure.o(.text) refers to ccompara.o(.text) for SetAlarmFlag
    ctasksure.o(.text) refers to cflashparam.o(.text) for clr_alarm_allinfo
    ctasksure.o(.text) refers to pwm.o(.text) for PWM1_Stop
    ctasksure.o(.text) refers to caddresscount.o(.text) for clr_weixialasignal
    ctasksure.o(.text) refers to csysreset.o(.text) for Menu_complete
    ctasksure.o(.text) refers to clocalset.o(.text) for HZ_SHOW
    ctasksure.o(.text) refers to mainmenu.o(.text) for menu_waiting
    ctasksure.o(.text) refers to cintstend.o(.text) for EndInt
    ctasksure.o(.text) refers to ssp.o(.text) for M25P80_Section_Erase
    ctasksure.o(.text) refers to cgrapparam.o(.text) for SetBaseAddr
    ctasksure.o(.text) refers to ctasksure.o(.data) for vZjFlag
    ctasksure.o(.text) refers to ccompreg.o(.text) for CompReg_menu
    ctasksure.o(.text) refers to ccompset.o(.text) for CompSet_Menu
    ctasksure.o(.text) refers to pcf8563.o(.text) for PCF8563_Read
    ctasksure.o(.text) refers to cdatemod.o(.text) for DateMod_Menu
    ctasksure.o(.text) refers to csyscheck.o(.text) for SysCheck_Menu
    ctasksure.o(.text) refers to ccompstat.o(.text) for CompStat_Menu
    ctasksure.o(.text) refers to ctaskdown.o(.text) for ClrHisCountDown
    ctasksure.o(.text) refers to chistorylist.o(.text) for menu_nohistory
    ctasksure.o(.text) refers to ctestself.o(.text) for TestSelf_Menu
    ctasksure.o(.text) refers to tasklist.o(.text) for Return_Task
    ctasksure.o(.text) refers to ccompinten.o(.text) for CompInten_Menu
    ctasksure.o(.text) refers to cnodeinfo.o(.text) for SetReg_CNodeInfo
    ctasksure.o(.text) refers to store_addr.o(.text) for clr_store_comp_info
    ctasksure.o(.text) refers to ctasksure.o(.bss) for setupinfo
    ctaskup.o(.text) refers to ckeycounter.o(.text) for GetCounter1
    ctaskup.o(.text) refers to cgetgrap.o(.text) for GetSetGrap
    ctaskup.o(.text) refers to uart.o(.text) for lcd_printf
    ctaskup.o(.text) refers to ctasksure.o(.text) for SetSpeaker_ON
    ctaskup.o(.text) refers to cgrapparam.o(.text) for GetIntenFlag
    ctaskup.o(.text) refers to cflashparam.o(.text) for get_basic_zones
    ctaskup.o(.text) refers to ccompinten.o(.text) for CompInten_Menu
    ctaskup.o(.text) refers to chistorylist.o(.text) for menu_history_over
    ctaskup.o(.text) refers to lcd.o(.text) for ClearScreen
    ctaskup.o(.text) refers to ctaskdown.o(.text) for hist_item
    ctaskup.o(.text) refers to csyscheck.o(.text) for SysCheck_Menu
    ctaskup.o(.text) refers to cdatemod.o(.text) for DateMod_Menu
    ctaskup.o(.text) refers to ccompset.o(.text) for CompSet_Menu
    ctaskup.o(.text) refers to ccompreg.o(.text) for CompReg_menu
    ctaskup.o(.text) refers to ctaskdown.o(.data) for vHisCountDown
    ctaskup.o(.text) refers to ctasksure.o(.data) for timedate
    ctaskup.o(.text) refers to clocalset.o(.text) for Local_Menu
    runfunction.o(.text) refers to ckeycounter.o(.text) for GetMenuFlag
    runfunction.o(.text) refers to extint.o(.text) for ClrE1_flag
    runfunction.o(.text) refers to lcd.o(.text) for ClearScreen
    runfunction.o(.text) refers to startmenu.o(.text) for Start_Menu
    runfunction.o(.text) refers to cflashparam.o(.text) for GetHistConter
    runfunction.o(.text) refers to uart.o(.text) for lcd_printf
    runfunction.o(.text) refers to rt_memcpy_v6.o(.text) for __aeabi_memcpy
    runfunction.o(.text) refers to ctasksure.o(.text) for GetSpeaker_Flag
    runfunction.o(.text) refers to pwm.o(.text) for PWM1_Start
    runfunction.o(.text) refers to alarmenu.o(.text) for Alarm_Menu
    runfunction.o(.text) refers to breakdown.o(.text) for Breakdown
    runfunction.o(.text) refers to ccomhandle.o(.text) for GetDisplay_alarm_flag
    runfunction.o(.text) refers to key.o(.text) for Get_KeyValue
    runfunction.o(.text) refers to tasklist.o(.text) for Back_Task
    runfunction.o(.text) refers to runfunction.o(.data) for his_pos
    runfunction.o(.text) refers to runfunction.o(.bss) for menu_alarm_info
    runfunction.o(.text) refers to mainmenu.o(.text) for Main_Menu
    runfunction.o(.text) refers to ccompara.o(.text) for SetAlarmFlag
    runfunction.o(.text) refers to cled.o(.text) for Led_Silence_Off
    runfunction.o(.text) refers to ctime.o(.text) for OnLCD
    runfunction.o(.text) refers to cmodelfault.o(.text) for menu_wirelessmod_fault
    runfunction.o(.text) refers to csendto195.o(.text) for Query_ByUart0
    tasklist.o(.text) refers to ctasksure.o(.text) for get_entry_localaddr_flag
    tasklist.o(.text) refers to cgrapparam.o(.text) for AddLocalParaSel
    tasklist.o(.text) refers to cflashparam.o(.text) for get_basic_localaddr
    tasklist.o(.text) refers to clocalset.o(.text) for Local_Menu
    tasklist.o(.text) refers to ccompreg.o(.text) for CompReg_menu
    tasklist.o(.text) refers to ccompset.o(.text) for CompSet_Menu
    tasklist.o(.text) refers to cdatemod.o(.text) for DateMod_Menu
    tasklist.o(.text) refers to lcd.o(.text) for ClearScreen
    tasklist.o(.text) refers to cannotate.o(.text) for Annotate_Menu
    tasklist.o(.text) refers to ccompstat.o(.text) for CompStat_Menu
    tasklist.o(.text) refers to ckeycounter.o(.text) for GetCounter1
    tasklist.o(.text) refers to cgetgrap.o(.text) for GetMainGrap
    tasklist.o(.text) refers to ctaskup.o(.text) for Level2_Up
    tasklist.o(.text) refers to ctaskdown.o(.text) for Level2_Down
    tasklist.o(.text) refers to ccomhandle.o(.text) for GetDisplay_alarm_flag
    tasklist.o(.text) refers to ctaskreturn.o(.text) for CLevel1_Return
    sysctrl.o(.text) refers to sysctrl.o(.data) for m_SysRun
    crunctrl.o(.text) refers to gpioinit.o(.text) for GPIOinit
    crunctrl.o(.text) refers to csysrunflag.o(.text) for InitC_CSysRunFlag
    crunctrl.o(.text) refers to ctimectrl.o(.text) for Init_CTimeCtrl
    crunctrl.o(.text) refers to cgpioirq.o(.text) for Init_CGpioIrq
    crunctrl.o(.text) refers to ctimedef.o(.text) for Get_Timer_100us
    crunctrl.o(.text) refers to ctime.o(.text) for init_timer
    crunctrl.o(.text) refers to cled.o(.text) for Led_Init
    crunctrl.o(.text) refers to uart.o(.text) for UARTInit
    crunctrl.o(.text) refers to lcd.o(.text) for InitLCD
    crunctrl.o(.text) refers to i2c.o(.text) for I2C0_Init
    crunctrl.o(.text) refers to ssp.o(.text) for SSP1_Init
    crunctrl.o(.text) refers to crelay.o(.text) for Relay_Init
    crunctrl.o(.text) refers to pwm.o(.text) for PWM_Init
    crunctrl.o(.text) refers to startmenu.o(.text) for Start_Menu
    crunctrl.o(.text) refers to cflashparam.o(.text) for init_flash_all
    crunctrl.o(.text) refers to ccomhandle.o(.text) for UartBindSend
    crunctrl.o(.text) refers to ccompara.o(.text) for Init_CirAddrInfo
    crunctrl.o(.text) refers to store_addr.o(.text) for init_store
    crunctrl.o(.text) refers to ctasksure.o(.text) for GetSpeaker_Flag
    crunctrl.o(.text) refers to ckeycounter.o(.text) for GetMenuFlag
    crunctrl.o(.text) refers to runfunction.o(.text) for SendHeart
    crunctrl.o(.text) refers to caddresscount.o(.text) for Clr_Alarm
    crunctrl.o(.text) refers to csetcurrent.o(.text) for state_loopld_printf
    crunctrl.o(.text) refers to crunctrl.o(.data) for vRunLedCount
    csysrunflag.o(.text) refers to csysrunflag.o(.data) for m_SysRunFlag
    clpansctrl.o(.text) refers to csetcurrent.o(.text) for State_6mA
    clpansctrl.o(.text) refers to clpansctrl.o(.data) for m_LpAnsD4
    clpansctrl.o(.text) refers to clpansctrl.o(.bss) for m_LpAnsFlag
    clpckctrl.o(.text) refers to clpckctrl.o(.data) for m_LpCkFlag
    clpscanctrl.o(.text) refers to clpscanctrl.o(.data) for m_LpScanFlag
    ctimectrl.o(.text) refers to clpscanctrl.o(.text) for Init_CLpScanCtrl
    ctimectrl.o(.text) refers to clpckctrl.o(.text) for Init_CLpCkCtrl
    ctimectrl.o(.text) refers to cnodeinfo.o(.text) for Init_CNodeInfo
    ctimectrl.o(.text) refers to csysrunflag.o(.text) for ClrDisHis_CSysRunFlag
    ctimectrl.o(.text) refers to clpansctrl.o(.text) for GetData_CLpAnsCtrl
    ctimectrl.o(.text) refers to csetcurrent.o(.text) for get_loopLD_state
    ctimectrl.o(.text) refers to caddresscount.o(.text) for addxialasignal
    ctimectrl.o(.text) refers to pwm.o(.text) for PWM1_Stop
    ctimectrl.o(.text) refers to runfunction.o(.text) for set_alarm_loop_show
    ctimectrl.o(.text) refers to ctime.o(.text) for vAddScreenMask
    ctimectrl.o(.text) refers to ckeycounter.o(.text) for GetMenuFlag
    ctimectrl.o(.text) refers to ctimectrl.o(.data) for vRunTime0
    cnodeinfo.o(.text) refers to rt_memclr_w.o(.text) for __aeabi_memclr4
    cnodeinfo.o(.text) refers to cnodeinfo.o(.data) for m_MaxNodeAddr
    cnodeinfo.o(.text) refers to cnodeinfo.o(.bss) for m_NodeInfo
    store_addr.o(.text) refers to cflashparam.o(.text) for get_comp_inzone
    store_addr.o(.text) refers to cnodeinfo.o(.text) for ClrReg_CNodeInfo
    store_addr.o(.text) refers to uart.o(.text) for lcd_printf
    alarmenu.o(.text) refers to rt_memcpy_w.o(.text) for __aeabi_memcpy4
    alarmenu.o(.text) refers to lcd.o(.text) for ClearScreen
    alarmenu.o(.text) refers to uart.o(.text) for GetAnnRow
    batterylow.o(.text) refers to rt_memcpy_w.o(.text) for __aeabi_memcpy4
    batterylow.o(.text) refers to cflashparam.o(.text) for get_basic_zones
    batterylow.o(.text) refers to lcd.o(.text) for DisplayJBHZK
    batterylow.o(.text) refers to uart.o(.text) for GetAnnRow
    breakdown.o(.text) refers to clocalset.o(.text) for HZ_SHOW
    breakdown.o(.text) refers to lcd.o(.text) for DisplayJBHZK
    breakdown.o(.text) refers to rt_memcpy_w.o(.text) for __aeabi_memcpy4
    breakdown.o(.text) refers to uart.o(.text) for GetAnnRow
    cannotate.o(.text) refers to lcd.o(.text) for DisplaynumberBlack
    cannotate.o(.text) refers to uart.o(.text) for GetAnnRow
    ccompinten.o(.text) refers to lcd.o(.text) for DisplayJBHZK
    ccompinten.o(.text) refers to rt_memcpy_w.o(.text) for __aeabi_memcpy4
    ccompinten.o(.text) refers to ccompreg.o(.text) for menu_compaddr
    ccompinten.o(.text) refers to uart.o(.text) for lcd_printf
    ccompinten.o(.text) refers to ccompinten.o(.data) for vInten_Flag
    ccompreg.o(.text) refers to lcd.o(.text) for DisplayJBHZK
    ccompreg.o(.text) refers to clocalset.o(.text) for HZ_SHOW
    ccompreg.o(.text) refers to rt_memcpy_w.o(.text) for __aeabi_memcpy4
    ccompset.o(.text) refers to rt_memcpy_w.o(.text) for __aeabi_memcpy4
    ccompset.o(.text) refers to lcd.o(.text) for DisplayJBHZKBlack
    ccompset.o(.text) refers to ctasksure.o(.text) for menu_compset
    ccompset.o(.text) refers to ccompreg.o(.text) for menu_compaddr
    ccompstat.o(.text) refers to clocalset.o(.text) for HZ_SHOW
    ccompstat.o(.text) refers to lcd.o(.text) for DisplayJBHZK
    ccompstat.o(.text) refers to rt_memcpy_w.o(.text) for __aeabi_memcpy4
    ccompstat.o(.text) refers to ccompreg.o(.text) for menu_compaddr
    ccompstat.o(.text) refers to cflashparam.o(.text) for get_mask_info
    ccompstat.o(.text) refers to uart.o(.text) for GetAnnRow
    ccompstat.o(.text) refers to ccompstat.o(.constdata) for .constdata
    ccompstat.o(.text) refers to ctasksure.o(.text) for menu_comp_noreg
    cdatemod.o(.text) refers to rt_memcpy_w.o(.text) for __aeabi_memcpy4
    cdatemod.o(.text) refers to lcd.o(.text) for ClearScreen
    cdatemod.o(.text) refers to pcf8563.o(.data) for TimeAndDate
    cdatemod.o(.text) refers to ctasksure.o(.text) for menu_setup_done
    checkmenu.o(.text) refers to rt_memcpy_w.o(.text) for __aeabi_memcpy4
    checkmenu.o(.text) refers to lcd.o(.text) for ClearScreen
    chistorylist.o(.text) refers to lcd.o(.text) for ClearScreen
    chistorylist.o(.text) refers to clocalset.o(.text) for HZ_SHOW
    chistorylist.o(.text) refers to cflashparam.o(.text) for GetHistConter
    chistorylist.o(.text) refers to uart.o(.text) for GetAnnRow
    clocalset.o(.text) refers to uart.o(.text) for lcd_printf
    clocalset.o(.text) refers to lcd.o(.text) for DisplayJBHZK
    clocalset.o(.text) refers to clocalset.o(.data) for hz
    cmodelfault.o(.text) refers to lcd.o(.text) for DisplayJBHZK
    csyscheck.o(.text) refers to lcd.o(.text) for DisplayJBHZK
    csyscheck.o(.text) refers to cflashparam.o(.text) for get_basic_nums
    csysreset.o(.text) refers to lcd.o(.text) for DisplayJBHZK
    ctestself.o(.text) refers to lcd.o(.text) for DisplayJBHZK
    mainmenu.o(.text) refers to lcd.o(.text) for Displaynumber
    mainmenu.o(.text) refers to uart.o(.text) for lcd_printf
    mainmenu.o(.text) refers to mainmenu.o(.data) for hz
    setmenu.o(.text) refers to lcd.o(.text) for Displaynumber
    setmenu.o(.text) refers to setmenu.o(.data) for hz
    startmenu.o(.text) refers to lcd.o(.text) for Displaynumber
    startmenu.o(.text) refers to pcf8563.o(.text) for PCF8563_Read
    startmenu.o(.text) refers to pcf8563.o(.data) for TimeAndDate
    testmenu.o(.text) refers to rt_memcpy_w.o(.text) for __aeabi_memcpy4
    testmenu.o(.text) refers to lcd.o(.text) for ClearScreen
    buffer.o(.text) refers to rt_memclr.o(.text) for __aeabi_memclr
    buffer.o(.text) refers to buffer.o(.data) for tem
    buffer.o(.data) refers to buffer.o(.bss) for Uartbuf
    cflashparam.o(.text) refers to ssp.o(.text) for M25P80_Read_1Byte
    cflashparam.o(.text) refers to ccomhandle.o(.text) for check_lp_running
    cflashparam.o(.text) refers to cflashparam.o(.data) for vHistFlag
    cflashparam.o(.text) refers to cflashparam.o(.bss) for vHistSufixInfo
    cflashparam.o(.text) refers to extint.o(.text) for Eint_Dis
    cflashparam.o(.text) refers to clpscanctrl.o(.text) for ClrSys_CLpScanCtrl
    cflashparam.o(.text) refers to cnodeinfo.o(.text) for ClrReg_CNodeInfo
    cflashparam.o(.text) refers to uart.o(.text) for lcd_printf
    cflashparam.o(.data) refers to cflashparam.o(.bss) for BaseInfoF
    cgrapparam.o(.text) refers to ctasksure.o(.text) for local_addr_value
    cgrapparam.o(.text) refers to cgrapparam.o(.data) for vLocalAddress
    cintstend.o(.text) refers to extint.o(.text) for Eint_Dis
    cintstend.o(.text) refers to clpscanctrl.o(.text) for ClrSys_CLpScanCtrl
    csetcurrent.o(.text) refers to uart.o(.text) for lcd_printf
    csetcurrent.o(.text) refers to csetcurrent.o(.data) for loop_LD_counter
    csetcurrent.o(.text) refers to csetcurrent.o(.bss) for state_loopLD
    cspeaker.o(.text) refers to ctime.o(.text) for GetSpeakerTick
    ctimertask.o(.text) refers to ctimertask.o(.data) for d10msTimer
    ctimertask.o(.text) refers to ctimertask.o(.bss) for stTaskTimer
    rt_memcpy_v6.o(.text) refers to rt_memcpy_w.o(.text) for __aeabi_memcpy4
    rt_memclr.o(.text) refers to rt_memclr_w.o(.text) for _memset_w
    __main.o(!!!main) refers to rtentry.o(.ARM.Collect$$rtentry$$00000000) for __rt_entry
    rtentry.o(.ARM.Collect$$rtentry$$00000000) refers (Special) to rtentry2.o(.ARM.Collect$$rtentry$$0000000A) for __rt_entry_li
    rtentry.o(.ARM.Collect$$rtentry$$00000000) refers (Special) to rtentry2.o(.ARM.Collect$$rtentry$$0000000D) for __rt_entry_main
    rtentry.o(.ARM.Collect$$rtentry$$00000000) refers (Special) to rtentry2.o(.ARM.Collect$$rtentry$$0000000C) for __rt_entry_postli_1
    rtentry.o(.ARM.Collect$$rtentry$$00000000) refers (Special) to rtentry2.o(.ARM.Collect$$rtentry$$00000009) for __rt_entry_postsh_1
    rtentry.o(.ARM.Collect$$rtentry$$00000000) refers (Special) to rtentry2.o(.ARM.Collect$$rtentry$$00000002) for __rt_entry_presh_1
    rtentry.o(.ARM.Collect$$rtentry$$00000000) refers (Special) to rtentry4.o(.ARM.Collect$$rtentry$$00000004) for __rt_entry_sh
    rtentry2.o(.ARM.Collect$$rtentry$$00000008) refers to boardinit2.o(.text) for _platform_post_stackheap_init
    rtentry2.o(.ARM.Collect$$rtentry$$0000000A) refers to libinit.o(.ARM.Collect$$libinit$$00000000) for __rt_lib_init
    rtentry2.o(.ARM.Collect$$rtentry$$0000000B) refers to boardinit3.o(.text) for _platform_post_lib_init
    rtentry2.o(.ARM.Collect$$rtentry$$0000000D) refers to main.o(.text) for main
    rtentry2.o(.ARM.Collect$$rtentry$$0000000D) refers to exit.o(.text) for exit
    rtentry2.o(.ARM.exidx) refers to rtentry2.o(.ARM.Collect$$rtentry$$00000001) for .ARM.Collect$$rtentry$$00000001
    rtentry2.o(.ARM.exidx) refers to rtentry2.o(.ARM.Collect$$rtentry$$00000008) for .ARM.Collect$$rtentry$$00000008
    rtentry2.o(.ARM.exidx) refers to rtentry2.o(.ARM.Collect$$rtentry$$0000000A) for .ARM.Collect$$rtentry$$0000000A
    rtentry2.o(.ARM.exidx) refers to rtentry2.o(.ARM.Collect$$rtentry$$0000000B) for .ARM.Collect$$rtentry$$0000000B
    rtentry2.o(.ARM.exidx) refers to rtentry2.o(.ARM.Collect$$rtentry$$0000000D) for .ARM.Collect$$rtentry$$0000000D
    rtentry4.o(.ARM.Collect$$rtentry$$00000004) refers to sys_stackheap_outer.o(.text) for __user_setup_stackheap
    rtentry4.o(.ARM.exidx) refers to rtentry4.o(.ARM.Collect$$rtentry$$00000004) for .ARM.Collect$$rtentry$$00000004
    sys_stackheap_outer.o(.text) refers to libspace.o(.text) for __user_perproc_libspace
    sys_stackheap_outer.o(.text) refers to startup_lpc17xx.o(.text) for __user_initial_stackheap
    exit.o(.text) refers to rtexit.o(.ARM.Collect$$rtexit$$00000000) for __rt_exit
    libinit.o(.ARM.Collect$$libinit$$00000000) refers (Special) to libinit2.o(.ARM.Collect$$libinit$$0000002A) for __rt_lib_init_alloca_1
    libinit.o(.ARM.Collect$$libinit$$00000000) refers (Special) to libinit2.o(.ARM.Collect$$libinit$$00000028) for __rt_lib_init_argv_1
    libinit.o(.ARM.Collect$$libinit$$00000000) refers (Special) to libinit2.o(.ARM.Collect$$libinit$$00000017) for __rt_lib_init_atexit_1
    libinit.o(.ARM.Collect$$libinit$$00000000) refers (Special) to libinit2.o(.ARM.Collect$$libinit$$0000001D) for __rt_lib_init_clock_1
    libinit.o(.ARM.Collect$$libinit$$00000000) refers (Special) to libinit2.o(.ARM.Collect$$libinit$$0000002E) for __rt_lib_init_cpp_1
    libinit.o(.ARM.Collect$$libinit$$00000000) refers (Special) to libinit2.o(.ARM.Collect$$libinit$$0000002C) for __rt_lib_init_exceptions_1
    libinit.o(.ARM.Collect$$libinit$$00000000) refers (Special) to libinit2.o(.ARM.Collect$$libinit$$0000001B) for __rt_lib_init_fp_trap_1
    libinit.o(.ARM.Collect$$libinit$$00000000) refers (Special) to libinit2.o(.ARM.Collect$$libinit$$0000001F) for __rt_lib_init_getenv_1
    libinit.o(.ARM.Collect$$libinit$$00000000) refers (Special) to libinit2.o(.ARM.Collect$$libinit$$00000006) for __rt_lib_init_heap_1
    libinit.o(.ARM.Collect$$libinit$$00000000) refers (Special) to libinit2.o(.ARM.Collect$$libinit$$0000000D) for __rt_lib_init_lc_collate_1
    libinit.o(.ARM.Collect$$libinit$$00000000) refers (Special) to libinit2.o(.ARM.Collect$$libinit$$0000000F) for __rt_lib_init_lc_ctype_1
    libinit.o(.ARM.Collect$$libinit$$00000000) refers (Special) to libinit2.o(.ARM.Collect$$libinit$$00000011) for __rt_lib_init_lc_monetary_1
    libinit.o(.ARM.Collect$$libinit$$00000000) refers (Special) to libinit2.o(.ARM.Collect$$libinit$$00000013) for __rt_lib_init_lc_numeric_1
    libinit.o(.ARM.Collect$$libinit$$00000000) refers (Special) to libinit2.o(.ARM.Collect$$libinit$$00000015) for __rt_lib_init_lc_time_1
    libinit.o(.ARM.Collect$$libinit$$00000000) refers (Special) to libinit2.o(.ARM.Collect$$libinit$$0000000A) for __rt_lib_init_rand_1
    libinit.o(.ARM.Collect$$libinit$$00000000) refers (Special) to libinit2.o(.ARM.Collect$$libinit$$0000002F) for __rt_lib_init_return
    libinit.o(.ARM.Collect$$libinit$$00000000) refers (Special) to libinit2.o(.ARM.Collect$$libinit$$00000019) for __rt_lib_init_signal_1
    libinit.o(.ARM.Collect$$libinit$$00000000) refers (Special) to libinit2.o(.ARM.Collect$$libinit$$00000021) for __rt_lib_init_stdio_1
    libinit.o(.ARM.Collect$$libinit$$00000000) refers (Special) to libinit2.o(.ARM.Collect$$libinit$$00000008) for __rt_lib_init_user_alloc_1
    libinit.o(.ARM.Collect$$libinit$$00000000) refers to fpinit.o(x$fpl$fpinit) for _fp_init
    libspace.o(.text) refers to libspace.o(.bss) for __libspace_start
    rtexit.o(.ARM.Collect$$rtexit$$00000000) refers (Special) to rtexit2.o(.ARM.Collect$$rtexit$$00000004) for __rt_exit_exit
    rtexit.o(.ARM.Collect$$rtexit$$00000000) refers (Special) to rtexit2.o(.ARM.Collect$$rtexit$$00000003) for __rt_exit_ls
    rtexit.o(.ARM.Collect$$rtexit$$00000000) refers (Special) to rtexit2.o(.ARM.Collect$$rtexit$$00000002) for __rt_exit_prels_1
    rtexit.o(.ARM.exidx) refers (Special) to rtexit2.o(.ARM.Collect$$rtexit$$00000004) for __rt_exit_exit
    rtexit.o(.ARM.exidx) refers (Special) to rtexit2.o(.ARM.Collect$$rtexit$$00000003) for __rt_exit_ls
    rtexit.o(.ARM.exidx) refers (Special) to rtexit2.o(.ARM.Collect$$rtexit$$00000002) for __rt_exit_prels_1
    rtexit.o(.ARM.exidx) refers to rtexit.o(.ARM.Collect$$rtexit$$00000000) for .ARM.Collect$$rtexit$$00000000
    libinit2.o(.ARM.Collect$$libinit$$0000000C) refers to libinit2.o(.ARM.Collect$$libinit$$0000000B) for .ARM.Collect$$libinit$$0000000B
    libinit2.o(.ARM.Collect$$libinit$$0000000E) refers to libinit2.o(.ARM.Collect$$libinit$$0000000B) for .ARM.Collect$$libinit$$0000000B
    libinit2.o(.ARM.Collect$$libinit$$00000010) refers to libinit2.o(.ARM.Collect$$libinit$$0000000B) for .ARM.Collect$$libinit$$0000000B
    libinit2.o(.ARM.Collect$$libinit$$00000012) refers to libinit2.o(.ARM.Collect$$libinit$$0000000B) for .ARM.Collect$$libinit$$0000000B
    libinit2.o(.ARM.Collect$$libinit$$00000014) refers to libinit2.o(.ARM.Collect$$libinit$$0000000B) for .ARM.Collect$$libinit$$0000000B
    libinit2.o(.ARM.Collect$$libinit$$00000022) refers to argv_veneer.o(.emb_text) for __ARM_argv_veneer
    libinit2.o(.ARM.Collect$$libinit$$00000023) refers to argv_veneer.o(.emb_text) for __ARM_argv_veneer
    fpinit.o(x$fpl$fpinit) refers to rt_fp_status_addr_intlibspace.o(.text) for __rt_fp_status_addr
    rtexit2.o(.ARM.Collect$$rtexit$$00000003) refers to libshutdown.o(.ARM.Collect$$libshutdown$$00000000) for __rt_lib_shutdown
    rtexit2.o(.ARM.Collect$$rtexit$$00000004) refers to sys_exit.o(.text) for _sys_exit
    rtexit2.o(.ARM.exidx) refers to rtexit2.o(.ARM.Collect$$rtexit$$00000001) for .ARM.Collect$$rtexit$$00000001
    rtexit2.o(.ARM.exidx) refers to rtexit2.o(.ARM.Collect$$rtexit$$00000003) for .ARM.Collect$$rtexit$$00000003
    rtexit2.o(.ARM.exidx) refers to rtexit2.o(.ARM.Collect$$rtexit$$00000004) for .ARM.Collect$$rtexit$$00000004
    rt_fp_status_addr.o(.text) refers to rt_fp_status_addr.o(.bss) for __rt_fp_status_addr_data
    rt_fp_status_addr_intlibspace.o(.text) refers to libspace.o(.bss) for __libspace_start
    argv_veneer.o(.emb_text) refers to no_argv.o(.text) for __ARM_get_argv
    sys_exit.o(.text) refers (Special) to use_no_semi.o(.text) for __I$use$semihosting
    sys_exit.o(.text) refers (Special) to indicate_semi.o(.text) for __semihosting_library_function
    _get_argv_nomalloc.o(.text) refers (Special) to hrguard.o(.text) for __heap_region$guard
    _get_argv_nomalloc.o(.text) refers to defsig_rtmem_outer.o(.text) for __rt_SIGRTMEM
    _get_argv_nomalloc.o(.text) refers to sys_command.o(.text) for _sys_command_string
    libshutdown.o(.ARM.Collect$$libshutdown$$00000000) refers (Special) to libshutdown2.o(.ARM.Collect$$libshutdown$$00000006) for __rt_lib_shutdown_fp_trap_1
    libshutdown.o(.ARM.Collect$$libshutdown$$00000000) refers (Special) to libshutdown2.o(.ARM.Collect$$libshutdown$$0000000E) for __rt_lib_shutdown_heap_1
    libshutdown.o(.ARM.Collect$$libshutdown$$00000000) refers (Special) to libshutdown2.o(.ARM.Collect$$libshutdown$$0000000F) for __rt_lib_shutdown_return
    libshutdown.o(.ARM.Collect$$libshutdown$$00000000) refers (Special) to libshutdown2.o(.ARM.Collect$$libshutdown$$00000009) for __rt_lib_shutdown_signal_1
    libshutdown.o(.ARM.Collect$$libshutdown$$00000000) refers (Special) to libshutdown2.o(.ARM.Collect$$libshutdown$$00000003) for __rt_lib_shutdown_stdio_1
    libshutdown.o(.ARM.Collect$$libshutdown$$00000000) refers (Special) to libshutdown2.o(.ARM.Collect$$libshutdown$$0000000B) for __rt_lib_shutdown_user_alloc_1
    sys_command.o(.text) refers (Special) to use_no_semi.o(.text) for __I$use$semihosting
    sys_command.o(.text) refers (Special) to indicate_semi.o(.text) for __semihosting_library_function
    defsig_rtmem_outer.o(.text) refers to defsig_rtmem_inner.o(.text) for __rt_SIGRTMEM_inner
    defsig_rtmem_outer.o(.text) refers to defsig_exit.o(.text) for __sig_exit
    defsig_rtmem_formal.o(.text) refers to rt_raise.o(.text) for __rt_raise
    rt_raise.o(.text) refers to __raise.o(.text) for __raise
    rt_raise.o(.text) refers to sys_exit.o(.text) for _sys_exit
    defsig_exit.o(.text) refers to sys_exit.o(.text) for _sys_exit
    defsig_rtmem_inner.o(.text) refers to defsig_general.o(.text) for __default_signal_display
    __raise.o(.text) refers to defsig.o(CL$$defsig) for __default_signal_handler
    defsig_general.o(.text) refers to sys_wrch.o(.text) for _ttywrch
    sys_wrch.o(.text) refers (Special) to use_no_semi.o(.text) for __I$use$semihosting
    sys_wrch.o(.text) refers (Special) to indicate_semi.o(.text) for __semihosting_library_function
    defsig.o(CL$$defsig) refers to defsig_rtmem_inner.o(.text) for __rt_SIGRTMEM_inner
    defsig_abrt_inner.o(.text) refers to defsig_general.o(.text) for __default_signal_display
    defsig_fpe_inner.o(.text) refers to defsig_general.o(.text) for __default_signal_display
    defsig_rtred_inner.o(.text) refers to defsig_general.o(.text) for __default_signal_display
    defsig_stak_inner.o(.text) refers to defsig_general.o(.text) for __default_signal_display
    defsig_pvfn_inner.o(.text) refers to defsig_general.o(.text) for __default_signal_display
    defsig_cppl_inner.o(.text) refers to defsig_general.o(.text) for __default_signal_display
    defsig_segv_inner.o(.text) refers to defsig_general.o(.text) for __default_signal_display
    defsig_other.o(.text) refers to defsig_general.o(.text) for __default_signal_display


==============================================================================

Removing Unused input sections from the image.

    Removing core_cm3.o(.emb_text), (32 bytes).
    Removing caddresscount.o(.bss), (150 bytes).
    Removing tasklist.o(.data), (3 bytes).
    Removing sysctrl.o(.text), (332 bytes).
    Removing sysctrl.o(.data), (4 bytes).
    Removing ctimectrl.o(.bss), (10 bytes).
    Removing batterylow.o(.text), (1766 bytes).
    Removing buffer.o(.text), (340 bytes).
    Removing buffer.o(.bss), (24 bytes).
    Removing buffer.o(.data), (12 bytes).
    Removing cspeaker.o(.text), (76 bytes).
    Removing ctimertask.o(.text), (476 bytes).
    Removing ctimertask.o(.bss), (600 bytes).
    Removing ctimertask.o(.data), (20 bytes).

14 unused section(s) (total 3845 bytes) removed from the image.

==============================================================================

Image Symbol Table

    Local Symbols

    Symbol Name                              Value     Ov Type        Size  Object(Section)

    RESET                                    0x00000000   Section      204  startup_lpc17xx.o(RESET)
    ../../angel/boardlib.s                   0x00000000   Number         0  boardshut.o ABSOLUTE
    ../../angel/boardlib.s                   0x00000000   Number         0  boardinit2.o ABSOLUTE
    ../../angel/boardlib.s                   0x00000000   Number         0  boardinit3.o ABSOLUTE
    ../../angel/boardlib.s                   0x00000000   Number         0  boardinit1.o ABSOLUTE
    ../../angel/dczerorl2.s                  0x00000000   Number         0  __dczerorl2.o ABSOLUTE
    ../../angel/handlers.s                   0x00000000   Number         0  __scatter_zi.o ABSOLUTE
    ../../angel/kernel.s                     0x00000000   Number         0  rtentry.o ABSOLUTE
    ../../angel/kernel.s                     0x00000000   Number         0  rtentry2.o ABSOLUTE
    ../../angel/kernel.s                     0x00000000   Number         0  rtentry4.o ABSOLUTE
    ../../angel/kernel.s                     0x00000000   Number         0  rtexit2.o ABSOLUTE
    ../../angel/kernel.s                     0x00000000   Number         0  rtexit.o ABSOLUTE
    ../../angel/rt.s                         0x00000000   Number         0  rt_fp_status_addr_intlibspace.o ABSOLUTE
    ../../angel/rt.s                         0x00000000   Number         0  rt_fp_status_addr.o ABSOLUTE
    ../../angel/rt.s                         0x00000000   Number         0  rt_raise.o ABSOLUTE
    ../../angel/scatter.s                    0x00000000   Number         0  __scatter.o ABSOLUTE
    ../../angel/startup.s                    0x00000000   Number         0  __main.o ABSOLUTE
    ../../angel/sys.s                        0x00000000   Number         0  indicate_semi.o ABSOLUTE
    ../../angel/sys.s                        0x00000000   Number         0  libspace.o ABSOLUTE
    ../../angel/sys.s                        0x00000000   Number         0  use_no_semi.o ABSOLUTE
    ../../angel/sys.s                        0x00000000   Number         0  sys_stackheap_outer.o ABSOLUTE
    ../../angel/sysapp.c                     0x00000000   Number         0  sys_exit.o ABSOLUTE
    ../../angel/sysapp.c                     0x00000000   Number         0  sys_command.o ABSOLUTE
    ../../angel/sysapp.c                     0x00000000   Number         0  sys_wrch.o ABSOLUTE
    ../../armsys.c                           0x00000000   Number         0  _get_argv_nomalloc.o ABSOLUTE
    ../../armsys.c                           0x00000000   Number         0  argv_veneer.o ABSOLUTE
    ../../armsys.c                           0x00000000   Number         0  no_argv.o ABSOLUTE
    ../../armsys.c                           0x00000000   Number         0  argv_veneer.o ABSOLUTE
    ../../fpinit.s                           0x00000000   Number         0  fpinit.o ABSOLUTE
    ../../heapalloc.c                        0x00000000   Number         0  hrguard.o ABSOLUTE
    ../../heapaux.c                          0x00000000   Number         0  heapauxi.o ABSOLUTE
    ../../libinit.s                          0x00000000   Number         0  libshutdown2.o ABSOLUTE
    ../../libinit.s                          0x00000000   Number         0  libinit.o ABSOLUTE
    ../../libinit.s                          0x00000000   Number         0  libinit2.o ABSOLUTE
    ../../libinit.s                          0x00000000   Number         0  libshutdown.o ABSOLUTE
    ../../memcpset.s                         0x00000000   Number         0  rt_memcpy_v6.o ABSOLUTE
    ../../memcpset.s                         0x00000000   Number         0  rt_memcpy_w.o ABSOLUTE
    ../../memcpset.s                         0x00000000   Number         0  rt_memclr.o ABSOLUTE
    ../../memcpset.s                         0x00000000   Number         0  rt_memclr_w.o ABSOLUTE
    ../../signal.c                           0x00000000   Number         0  defsig_rtmem_inner.o ABSOLUTE
    ../../signal.c                           0x00000000   Number         0  defsig_cppl_inner.o ABSOLUTE
    ../../signal.c                           0x00000000   Number         0  defsig_rtmem_outer.o ABSOLUTE
    ../../signal.c                           0x00000000   Number         0  defsig_rtmem_formal.o ABSOLUTE
    ../../signal.c                           0x00000000   Number         0  defsig_exit.o ABSOLUTE
    ../../signal.c                           0x00000000   Number         0  __raise.o ABSOLUTE
    ../../signal.c                           0x00000000   Number         0  defsig_pvfn_inner.o ABSOLUTE
    ../../signal.c                           0x00000000   Number         0  defsig_stak_inner.o ABSOLUTE
    ../../signal.c                           0x00000000   Number         0  defsig_general.o ABSOLUTE
    ../../signal.c                           0x00000000   Number         0  defsig_abrt_inner.o ABSOLUTE
    ../../signal.c                           0x00000000   Number         0  defsig_fpe_inner.o ABSOLUTE
    ../../signal.c                           0x00000000   Number         0  defsig_segv_inner.o ABSOLUTE
    ../../signal.c                           0x00000000   Number         0  defsig_other.o ABSOLUTE
    ../../signal.c                           0x00000000   Number         0  defsig_rtred_inner.o ABSOLUTE
    ../../signal.s                           0x00000000   Number         0  defsig.o ABSOLUTE
    ../../stdlib.c                           0x00000000   Number         0  exit.o ABSOLUTE
    ..\\src\\core_cm3.c                      0x00000000   Number         0  core_cm3.o ABSOLUTE
    ..\src\12UARTHandle\CComAnn.c            0x00000000   Number         0  ccomann.o ABSOLUTE
    ..\src\12UARTHandle\CComHandle.c         0x00000000   Number         0  ccomhandle.o ABSOLUTE
    ..\src\12UARTHandle\CComPara.c           0x00000000   Number         0  ccompara.o ABSOLUTE
    ..\src\13CirCon\CAddressCount.c          0x00000000   Number         0  caddresscount.o ABSOLUTE
    ..\src\14Sand195\CSendTo195.c            0x00000000   Number         0  csendto195.o ABSOLUTE
    ..\src\APP\main.c                        0x00000000   Number         0  main.o ABSOLUTE
    ..\src\Board\CLED.c                      0x00000000   Number         0  cled.o ABSOLUTE
    ..\src\Board\CRelay.c                    0x00000000   Number         0  crelay.o ABSOLUTE
    ..\src\Board\key.c                       0x00000000   Number         0  key.o ABSOLUTE
    ..\src\Board\lcd.c                       0x00000000   Number         0  lcd.o ABSOLUTE
    ..\src\Board\pcf8563.c                   0x00000000   Number         0  pcf8563.o ABSOLUTE
    ..\src\CLoopCtrl\CLpAnsCtrl.c            0x00000000   Number         0  clpansctrl.o ABSOLUTE
    ..\src\CLoopCtrl\CLpCkCtrl.c             0x00000000   Number         0  clpckctrl.o ABSOLUTE
    ..\src\CLoopCtrl\CLpScanCtrl.c           0x00000000   Number         0  clpscanctrl.o ABSOLUTE
    ..\src\CNodeInfo\CNodeInfo.c             0x00000000   Number         0  cnodeinfo.o ABSOLUTE
    ..\src\CRunCtrl\CRunCtrl.c               0x00000000   Number         0  crunctrl.o ABSOLUTE
    ..\src\CRunCtrl\CSysRunFlag.c            0x00000000   Number         0  csysrunflag.o ABSOLUTE
    ..\src\CTimeCtrl\CTimeCtrl.c             0x00000000   Number         0  ctimectrl.o ABSOLUTE
    ..\src\Hardware\CSSP\ssp.c               0x00000000   Number         0  ssp.o ABSOLUTE
    ..\src\Hardware\Delay.c                  0x00000000   Number         0  delay.o ABSOLUTE
    ..\src\Hardware\Extint\extint.c          0x00000000   Number         0  extint.o ABSOLUTE
    ..\src\Hardware\GPIO\GPIOInit.C          0x00000000   Number         0  gpioinit.o ABSOLUTE
    ..\src\Hardware\I2C\i2c.c                0x00000000   Number         0  i2c.o ABSOLUTE
    ..\src\Hardware\IRQ\CGpioIrq.c           0x00000000   Number         0  cgpioirq.o ABSOLUTE
    ..\src\Hardware\PWM.c                    0x00000000   Number         0  pwm.o ABSOLUTE
    ..\src\Hardware\Timer\CTime.c            0x00000000   Number         0  ctime.o ABSOLUTE
    ..\src\Hardware\Timer\CTimeDef.c         0x00000000   Number         0  ctimedef.o ABSOLUTE
    ..\src\Hardware\UART\uart.c              0x00000000   Number         0  uart.o ABSOLUTE
    ..\src\MenuCtrl\CGetGrap.c               0x00000000   Number         0  cgetgrap.o ABSOLUTE
    ..\src\MenuCtrl\CKeyCounter.c            0x00000000   Number         0  ckeycounter.o ABSOLUTE
    ..\src\MenuCtrl\CTaskDown.c              0x00000000   Number         0  ctaskdown.o ABSOLUTE
    ..\src\MenuCtrl\CTaskReturn.c            0x00000000   Number         0  ctaskreturn.o ABSOLUTE
    ..\src\MenuCtrl\CTaskSure.c              0x00000000   Number         0  ctasksure.o ABSOLUTE
    ..\src\MenuCtrl\CTaskUp.c                0x00000000   Number         0  ctaskup.o ABSOLUTE
    ..\src\MenuCtrl\runfunction.c            0x00000000   Number         0  runfunction.o ABSOLUTE
    ..\src\MenuCtrl\tasklist.c               0x00000000   Number         0  tasklist.o ABSOLUTE
    ..\src\Menu\CAnnotate.c                  0x00000000   Number         0  cannotate.o ABSOLUTE
    ..\src\Menu\CCompInten.c                 0x00000000   Number         0  ccompinten.o ABSOLUTE
    ..\src\Menu\CCompReg.c                   0x00000000   Number         0  ccompreg.o ABSOLUTE
    ..\src\Menu\CCompSet.c                   0x00000000   Number         0  ccompset.o ABSOLUTE
    ..\src\Menu\CCompStat.c                  0x00000000   Number         0  ccompstat.o ABSOLUTE
    ..\src\Menu\CDateMod.c                   0x00000000   Number         0  cdatemod.o ABSOLUTE
    ..\src\Menu\CHistoryList.c               0x00000000   Number         0  chistorylist.o ABSOLUTE
    ..\src\Menu\CLocalSet.c                  0x00000000   Number         0  clocalset.o ABSOLUTE
    ..\src\Menu\CModelFault.c                0x00000000   Number         0  cmodelfault.o ABSOLUTE
    ..\src\Menu\CSysCheck.c                  0x00000000   Number         0  csyscheck.o ABSOLUTE
    ..\src\Menu\CSysReset.c                  0x00000000   Number         0  csysreset.o ABSOLUTE
    ..\src\Menu\CTestSelf.c                  0x00000000   Number         0  ctestself.o ABSOLUTE
    ..\src\Menu\alarmenu.c                   0x00000000   Number         0  alarmenu.o ABSOLUTE
    ..\src\Menu\batteryLow.c                 0x00000000   Number         0  batterylow.o ABSOLUTE
    ..\src\Menu\breakdown.c                  0x00000000   Number         0  breakdown.o ABSOLUTE
    ..\src\Menu\checkmenu.c                  0x00000000   Number         0  checkmenu.o ABSOLUTE
    ..\src\Menu\mainmenu.c                   0x00000000   Number         0  mainmenu.o ABSOLUTE
    ..\src\Menu\setmenu.c                    0x00000000   Number         0  setmenu.o ABSOLUTE
    ..\src\Menu\startmenu.c                  0x00000000   Number         0  startmenu.o ABSOLUTE
    ..\src\Menu\testmenu.c                   0x00000000   Number         0  testmenu.o ABSOLUTE
    ..\src\common\CFlashParam.c              0x00000000   Number         0  cflashparam.o ABSOLUTE
    ..\src\common\CGetCompSum.c              0x00000000   Number         0  cgetcompsum.o ABSOLUTE
    ..\src\common\CGrapParam.c               0x00000000   Number         0  cgrapparam.o ABSOLUTE
    ..\src\common\CIntStEnd.c                0x00000000   Number         0  cintstend.o ABSOLUTE
    ..\src\common\CSendToFlash.c             0x00000000   Number         0  csendtoflash.o ABSOLUTE
    ..\src\common\CSetCurrent.c              0x00000000   Number         0  csetcurrent.o ABSOLUTE
    ..\src\common\CSpeaker.c                 0x00000000   Number         0  cspeaker.o ABSOLUTE
    ..\src\common\CTimerTask.c               0x00000000   Number         0  ctimertask.o ABSOLUTE
    ..\src\common\buffer.c                   0x00000000   Number         0  buffer.o ABSOLUTE
    ..\src\componentinfo\componentinfo.c     0x00000000   Number         0  componentinfo.o ABSOLUTE
    ..\src\componentinfo\store_addr.c        0x00000000   Number         0  store_addr.o ABSOLUTE
    ..\src\core_cm3.c                        0x00000000   Number         0  core_cm3.o ABSOLUTE
    ..\src\startup_LPC17xx.s                 0x00000000   Number         0  startup_lpc17xx.o ABSOLUTE
    ..\src\system_LPC17xx.c                  0x00000000   Number         0  system_lpc17xx.o ABSOLUTE
    ..\src\timesharectrl\SysCtrl.c           0x00000000   Number         0  sysctrl.o ABSOLUTE
    dc.s                                     0x00000000   Number         0  dc.o ABSOLUTE
    !!!main                                  0x000000cc   Section        8  __main.o(!!!main)
    !!!scatter                               0x000000d4   Section       52  __scatter.o(!!!scatter)
    !!dczerorl2                              0x00000108   Section       90  __dczerorl2.o(!!dczerorl2)
    !!handler_zi                             0x00000164   Section       28  __scatter_zi.o(!!handler_zi)
    .ARM.Collect$$libinit$$00000000          0x00000180   Section        6  libinit.o(.ARM.Collect$$libinit$$00000000)
    .ARM.Collect$$libinit$$00000006          0x00000186   Section        0  libinit2.o(.ARM.Collect$$libinit$$00000006)
    .ARM.Collect$$libinit$$00000008          0x00000186   Section        0  libinit2.o(.ARM.Collect$$libinit$$00000008)
    .ARM.Collect$$libinit$$0000000A          0x00000186   Section        0  libinit2.o(.ARM.Collect$$libinit$$0000000A)
    .ARM.Collect$$libinit$$0000000D          0x00000186   Section        0  libinit2.o(.ARM.Collect$$libinit$$0000000D)
    .ARM.Collect$$libinit$$0000000F          0x00000186   Section        0  libinit2.o(.ARM.Collect$$libinit$$0000000F)
    .ARM.Collect$$libinit$$00000011          0x00000186   Section        0  libinit2.o(.ARM.Collect$$libinit$$00000011)
    .ARM.Collect$$libinit$$00000013          0x00000186   Section        0  libinit2.o(.ARM.Collect$$libinit$$00000013)
    .ARM.Collect$$libinit$$00000015          0x00000186   Section        0  libinit2.o(.ARM.Collect$$libinit$$00000015)
    .ARM.Collect$$libinit$$00000017          0x00000186   Section        0  libinit2.o(.ARM.Collect$$libinit$$00000017)
    .ARM.Collect$$libinit$$00000019          0x00000186   Section        0  libinit2.o(.ARM.Collect$$libinit$$00000019)
    .ARM.Collect$$libinit$$0000001B          0x00000186   Section        0  libinit2.o(.ARM.Collect$$libinit$$0000001B)
    .ARM.Collect$$libinit$$0000001D          0x00000186   Section        0  libinit2.o(.ARM.Collect$$libinit$$0000001D)
    .ARM.Collect$$libinit$$0000001F          0x00000186   Section        0  libinit2.o(.ARM.Collect$$libinit$$0000001F)
    .ARM.Collect$$libinit$$00000021          0x00000186   Section        0  libinit2.o(.ARM.Collect$$libinit$$00000021)
    .ARM.Collect$$libinit$$00000028          0x00000186   Section        0  libinit2.o(.ARM.Collect$$libinit$$00000028)
    .ARM.Collect$$libinit$$0000002A          0x00000186   Section        0  libinit2.o(.ARM.Collect$$libinit$$0000002A)
    .ARM.Collect$$libinit$$0000002C          0x00000186   Section        0  libinit2.o(.ARM.Collect$$libinit$$0000002C)
    .ARM.Collect$$libinit$$0000002E          0x00000186   Section        0  libinit2.o(.ARM.Collect$$libinit$$0000002E)
    .ARM.Collect$$libinit$$0000002F          0x00000186   Section        2  libinit2.o(.ARM.Collect$$libinit$$0000002F)
    .ARM.Collect$$libshutdown$$00000000      0x00000188   Section        2  libshutdown.o(.ARM.Collect$$libshutdown$$00000000)
    .ARM.Collect$$libshutdown$$00000003      0x0000018a   Section        0  libshutdown2.o(.ARM.Collect$$libshutdown$$00000003)
    .ARM.Collect$$libshutdown$$00000006      0x0000018a   Section        0  libshutdown2.o(.ARM.Collect$$libshutdown$$00000006)
    .ARM.Collect$$libshutdown$$00000009      0x0000018a   Section        0  libshutdown2.o(.ARM.Collect$$libshutdown$$00000009)
    .ARM.Collect$$libshutdown$$0000000B      0x0000018a   Section        0  libshutdown2.o(.ARM.Collect$$libshutdown$$0000000B)
    .ARM.Collect$$libshutdown$$0000000E      0x0000018a   Section        0  libshutdown2.o(.ARM.Collect$$libshutdown$$0000000E)
    .ARM.Collect$$libshutdown$$0000000F      0x0000018a   Section        2  libshutdown2.o(.ARM.Collect$$libshutdown$$0000000F)
    .ARM.Collect$$rtentry$$00000000          0x0000018c   Section        0  rtentry.o(.ARM.Collect$$rtentry$$00000000)
    .ARM.Collect$$rtentry$$00000002          0x0000018c   Section        0  rtentry2.o(.ARM.Collect$$rtentry$$00000002)
    .ARM.Collect$$rtentry$$00000004          0x0000018c   Section        6  rtentry4.o(.ARM.Collect$$rtentry$$00000004)
    .ARM.Collect$$rtentry$$00000009          0x00000192   Section        0  rtentry2.o(.ARM.Collect$$rtentry$$00000009)
    .ARM.Collect$$rtentry$$0000000A          0x00000192   Section        4  rtentry2.o(.ARM.Collect$$rtentry$$0000000A)
    .ARM.Collect$$rtentry$$0000000C          0x00000196   Section        0  rtentry2.o(.ARM.Collect$$rtentry$$0000000C)
    .ARM.Collect$$rtentry$$0000000D          0x00000196   Section        8  rtentry2.o(.ARM.Collect$$rtentry$$0000000D)
    .ARM.Collect$$rtexit$$00000000           0x0000019e   Section        2  rtexit.o(.ARM.Collect$$rtexit$$00000000)
    .ARM.Collect$$rtexit$$00000002           0x000001a0   Section        0  rtexit2.o(.ARM.Collect$$rtexit$$00000002)
    .ARM.Collect$$rtexit$$00000003           0x000001a0   Section        4  rtexit2.o(.ARM.Collect$$rtexit$$00000003)
    .ARM.Collect$$rtexit$$00000004           0x000001a4   Section        6  rtexit2.o(.ARM.Collect$$rtexit$$00000004)
    .text                                    0x000001ac   Section       60  startup_lpc17xx.o(.text)
    .text                                    0x000001e8   Section        0  main.o(.text)
    .text                                    0x00000228   Section        0  delay.o(.text)
    .text                                    0x00000264   Section        0  crelay.o(.text)
    .text                                    0x000002d4   Section        0  cintstend.o(.text)
    .text                                    0x000002e8   Section        0  heapauxi.o(.text)
    .text                                    0x000002ee   Section        0  exit.o(.text)
    .text                                    0x000002fa   Section        2  use_no_semi.o(.text)
    .ARM.__at_0x02FC                         0x000002fc   Section        4  startup_lpc17xx.o(.ARM.__at_0x02FC)
    .text                                    0x00000300   Section        0  system_lpc17xx.o(.text)
    .text                                    0x00000534   Section        0  ssp.o(.text)
    .text                                    0x00000ae0   Section        0  i2c.o(.text)
    NVIC_SetPriority                         0x00000ae1   Thumb Code    32  i2c.o(.text)
    NVIC_EnableIRQ                           0x00000f71   Thumb Code    24  i2c.o(.text)
    NVIC_DisableIRQ                          0x00000f89   Thumb Code    18  i2c.o(.text)
    .text                                    0x00000fb0   Section        0  uart.o(.text)
    NVIC_SetPriority                         0x00000fb1   Thumb Code    32  uart.o(.text)
    Uart0SendByte                            0x000011bf   Thumb Code    48  uart.o(.text)
    NVIC_EnableIRQ                           0x0000170b   Thumb Code    24  uart.o(.text)
    NVIC_DisableIRQ                          0x00001723   Thumb Code    18  uart.o(.text)
    .text                                    0x000017ac   Section        0  gpioinit.o(.text)
    .text                                    0x0000197c   Section        0  ctime.o(.text)
    NVIC_SetPriority                         0x0000197d   Thumb Code    32  ctime.o(.text)
    NVIC_EnableIRQ                           0x00001cfb   Thumb Code    24  ctime.o(.text)
    NVIC_DisableIRQ                          0x00001d13   Thumb Code    18  ctime.o(.text)
    .text                                    0x00001d60   Section        0  ctimedef.o(.text)
    .text                                    0x00001ed0   Section        0  pwm.o(.text)
    NVIC_EnableIRQ                           0x00001fc9   Thumb Code    24  pwm.o(.text)
    .text                                    0x00002000   Section        0  extint.o(.text)
    NVIC_SetPriority                         0x00002001   Thumb Code    32  extint.o(.text)
    NVIC_EnableIRQ                           0x000021c1   Thumb Code    24  extint.o(.text)
    NVIC_DisableIRQ                          0x000021d9   Thumb Code    18  extint.o(.text)
    .text                                    0x0000221c   Section        0  cgpioirq.o(.text)
    .text                                    0x000022fc   Section        0  lcd.o(.text)
    .text                                    0x00002ba4   Section        0  pcf8563.o(.text)
    .text                                    0x00003150   Section        0  key.o(.text)
    .text                                    0x000032f4   Section        0  cled.o(.text)
    .text                                    0x00003498   Section        0  ccomhandle.o(.text)
    .text                                    0x00004210   Section        0  ccompara.o(.text)
    .text                                    0x0000463c   Section        0  caddresscount.o(.text)
    .text                                    0x000047a4   Section        0  csendto195.o(.text)
    .text                                    0x00004830   Section        0  cgetgrap.o(.text)
    .text                                    0x00004914   Section        0  ckeycounter.o(.text)
    .text                                    0x000049ec   Section        0  ctaskdown.o(.text)
    .text                                    0x00005064   Section        0  ctaskreturn.o(.text)
    .text                                    0x00005224   Section        0  ctasksure.o(.text)
    .text                                    0x00006598   Section        0  ctaskup.o(.text)
    .text                                    0x00006c30   Section        0  runfunction.o(.text)
    .text                                    0x0000743c   Section        0  tasklist.o(.text)
    .text                                    0x000078f0   Section        0  crunctrl.o(.text)
    .text                                    0x00007abc   Section        0  csysrunflag.o(.text)
    .text                                    0x00007c5c   Section        0  clpansctrl.o(.text)
    .text                                    0x00007d24   Section        0  clpckctrl.o(.text)
    .text                                    0x00007e74   Section        0  clpscanctrl.o(.text)
    .text                                    0x0000806c   Section        0  ctimectrl.o(.text)
    .text                                    0x000083d8   Section        0  cnodeinfo.o(.text)
    .text                                    0x000085d8   Section        0  store_addr.o(.text)
    .text                                    0x000088c0   Section        0  alarmenu.o(.text)
    .text                                    0x00008f88   Section        0  breakdown.o(.text)
    .text                                    0x00009634   Section        0  cannotate.o(.text)
    .text                                    0x00009a2c   Section        0  ccompinten.o(.text)
    .text                                    0x00009ee8   Section        0  ccompreg.o(.text)
    .text                                    0x0000a660   Section        0  ccompset.o(.text)
    .text                                    0x0000a934   Section        0  ccompstat.o(.text)
    .text                                    0x0000adb0   Section        0  cdatemod.o(.text)
    .text                                    0x0000b7ec   Section        0  checkmenu.o(.text)
    .text                                    0x0000b9c0   Section        0  chistorylist.o(.text)
    .text                                    0x0000c298   Section        0  clocalset.o(.text)
    .text                                    0x0000c6a8   Section        0  cmodelfault.o(.text)
    .text                                    0x0000c754   Section        0  csyscheck.o(.text)
    .text                                    0x0000c8d4   Section        0  csysreset.o(.text)
    .text                                    0x0000c94c   Section        0  ctestself.o(.text)
    .text                                    0x0000c9c4   Section        0  mainmenu.o(.text)
    .text                                    0x0000cf3c   Section        0  setmenu.o(.text)
    .text                                    0x0000d2e0   Section        0  startmenu.o(.text)
    .text                                    0x0000d590   Section        0  testmenu.o(.text)
    .text                                    0x0000d770   Section        0  cflashparam.o(.text)
    get_array                                0x0000d77d   Thumb Code    94  cflashparam.o(.text)
    get_hist_info                            0x0000d7db   Thumb Code    30  cflashparam.o(.text)
    init_record                              0x0000d895   Thumb Code   342  cflashparam.o(.text)
    save_record                              0x0000d9eb   Thumb Code   324  cflashparam.o(.text)
    clr_record                               0x0000db2f   Thumb Code    90  cflashparam.o(.text)
    set_array                                0x0000db89   Thumb Code    88  cflashparam.o(.text)
    get_comp_info                            0x0000dc3f   Thumb Code    20  cflashparam.o(.text)
    set_comp_info                            0x0000dd07   Thumb Code    24  cflashparam.o(.text)
    set_alarm                                0x0000dfa3   Thumb Code    24  cflashparam.o(.text)
    get_alarm_info                           0x0000dfbb   Thumb Code    38  cflashparam.o(.text)
    set_histnum_info                         0x0000e851   Thumb Code    22  cflashparam.o(.text)
    get_histnum_info                         0x0000e867   Thumb Code    18  cflashparam.o(.text)
    .text                                    0x0000eb90   Section        0  cgrapparam.o(.text)
    .text                                    0x0000f030   Section        0  csetcurrent.o(.text)
    .text                                    0x0000f168   Section      138  rt_memcpy_v6.o(.text)
    .text                                    0x0000f1f2   Section      100  rt_memcpy_w.o(.text)
    .text                                    0x0000f256   Section       68  rt_memclr.o(.text)
    .text                                    0x0000f29a   Section       78  rt_memclr_w.o(.text)
    .text                                    0x0000f2e8   Section       74  sys_stackheap_outer.o(.text)
    .text                                    0x0000f334   Section        8  libspace.o(.text)
    .text                                    0x0000f33c   Section        8  rt_fp_status_addr_intlibspace.o(.text)
    .text                                    0x0000f344   Section        0  sys_exit.o(.text)
    .text                                    0x0000f350   Section        0  indicate_semi.o(.text)
    x$fpl$fpinit                             0x0000f350   Section       14  fpinit.o(x$fpl$fpinit)
    .constdata                               0x0000f35e   Section    265344  lcd.o(.constdata)
    .constdata                               0x0004ffde   Section        2  ccomhandle.o(.constdata)
    .constdata                               0x0004ffe0   Section       65  ccompstat.o(.constdata)
    .data                                    0x10000000   Section        4  system_lpc17xx.o(.data)
    .data                                    0x10000004   Section        4  delay.o(.data)
    .data                                    0x10000008   Section       22  i2c.o(.data)
    .data                                    0x1000001e   Section       12  uart.o(.data)
    .data                                    0x1000002c   Section       22  ctime.o(.data)
    vSysTimeCtrl                             0x10000040   Data           2  ctime.o(.data)
    .data                                    0x10000044   Section       40  ctimedef.o(.data)
    m_Time0Def                               0x10000058   Data          16  ctimedef.o(.data)
    .data                                    0x1000006c   Section        8  pwm.o(.data)
    .data                                    0x10000074   Section       12  extint.o(.data)
    .data                                    0x10000080   Section     1168  lcd.o(.data)
    .data                                    0x10000510   Section        8  pcf8563.o(.data)
    .data                                    0x10000518   Section        1  key.o(.data)
    .data                                    0x1000051c   Section       70  ccomhandle.o(.data)
    .data                                    0x10000564   Section       27  ccompara.o(.data)
    .data                                    0x10000580   Section       16  caddresscount.o(.data)
    tmpnums                                  0x1000058f   Data           1  caddresscount.o(.data)
    .data                                    0x10000590   Section        6  ckeycounter.o(.data)
    .data                                    0x10000598   Section        8  ctaskdown.o(.data)
    .data                                    0x100005a0   Section       16  ctasksure.o(.data)
    .data                                    0x100005b0   Section       17  runfunction.o(.data)
    record_showalarm                         0x100005b9   Data           1  runfunction.o(.data)
    current_alarmpart                        0x100005bb   Data           1  runfunction.o(.data)
    time_alarm_backct                        0x100005bc   Data           1  runfunction.o(.data)
    time_sendheart                           0x100005bd   Data           1  runfunction.o(.data)
    pos                                      0x100005c0   Data           1  runfunction.o(.data)
    .data                                    0x100005c1   Section        2  crunctrl.o(.data)
    startflag                                0x100005c1   Data           1  crunctrl.o(.data)
    .data                                    0x100005c4   Section        4  csysrunflag.o(.data)
    .data                                    0x100005c8   Section       16  clpansctrl.o(.data)
    m_LpAnsD4                                0x100005c8   Data           3  clpansctrl.o(.data)
    m_LpAnsD8                                0x100005cb   Data           3  clpansctrl.o(.data)
    m_LpAnsD12                               0x100005ce   Data          10  clpansctrl.o(.data)
    .data                                    0x100005d8   Section        4  clpckctrl.o(.data)
    .data                                    0x100005dc   Section        4  clpscanctrl.o(.data)
    .data                                    0x100005e0   Section       37  ctimectrl.o(.data)
    m_AnsStatTime                            0x100005e4   Data           8  ctimectrl.o(.data)
    m_AnsDataTime                            0x100005ec   Data           8  ctimectrl.o(.data)
    .data                                    0x10000605   Section        1  cnodeinfo.o(.data)
    m_MaxNodeAddr                            0x10000605   Data           1  cnodeinfo.o(.data)
    .data                                    0x10000606   Section        1  ccompinten.o(.data)
    .data                                    0x10000607   Section       49  clocalset.o(.data)
    hz                                       0x10000607   Data          25  clocalset.o(.data)
    hz                                       0x10000620   Data           9  clocalset.o(.data)
    hz                                       0x10000629   Data          15  clocalset.o(.data)
    .data                                    0x10000638   Section       35  mainmenu.o(.data)
    hz                                       0x10000638   Data          35  mainmenu.o(.data)
    .data                                    0x1000065b   Section       33  setmenu.o(.data)
    .data                                    0x1000067c   Section     1392  cflashparam.o(.data)
    vAnnCounter                              0x10000a2c   Data           1  cflashparam.o(.data)
    history_alarmtime                        0x10000be4   Data           8  cflashparam.o(.data)
    .data                                    0x10000bec   Section       48  cgrapparam.o(.data)
    .data                                    0x10000c1c   Section        2  csetcurrent.o(.data)
    .bss                                     0x10000c20   Section     4836  uart.o(.bss)
    .bss                                     0x10001f04   Section       24  key.o(.bss)
    .bss                                     0x10001f1c   Section       64  ccomhandle.o(.bss)
    .bss                                     0x10001f5c   Section      260  ccompara.o(.bss)
    .bss                                     0x10002060   Section       15  csendto195.o(.bss)
    .bss                                     0x10002070   Section       18  ctasksure.o(.bss)
    .bss                                     0x10002082   Section       88  runfunction.o(.bss)
    .bss                                     0x100020da   Section       10  clpansctrl.o(.bss)
    .bss                                     0x100020e4   Section     1020  cnodeinfo.o(.bss)
    .bss                                     0x100024e0   Section    21246  cflashparam.o(.bss)
    .bss                                     0x100077de   Section       10  csetcurrent.o(.bss)
    .bss                                     0x100077e8   Section       96  libspace.o(.bss)
    HEAP                                     0x10007848   Section        0  startup_lpc17xx.o(HEAP)
    STACK                                    0x10007848   Section      512  startup_lpc17xx.o(STACK)
    Heap_Mem                                 0x10007848   Data           0  startup_lpc17xx.o(HEAP)
    Stack_Mem                                0x10007848   Data         512  startup_lpc17xx.o(STACK)
    __initial_sp                             0x10007a48   Data           0  startup_lpc17xx.o(STACK)

    Global Symbols

    Symbol Name                              Value     Ov Type        Size  Object(Section)

    BuildAttributes$$THM_ISAv4$P$D$K$B$S$PE$A:L22UL41UL21$X:L11$S22US41US21$IEEE1$IW$USESV6$~STKCKD$USESV7$~SHL$OSPACE$ROPI$EBA8$UX$STANDARDLIB$REQ8$PRES8$EABIv2 0x00000000   Number         0  anon$$obj.o ABSOLUTE
    __ARM_use_no_argv                        0x00000000   Number         0  main.o ABSOLUTE
    __Vectors                                0x00000000   Data           4  startup_lpc17xx.o(RESET)
    __ARM_exceptions_init                     - Undefined Weak Reference
    __alloca_initialize                       - Undefined Weak Reference
    __cpp_initialize__aeabi_                  - Undefined Weak Reference
    __cxa_finalize                            - Undefined Weak Reference
    __rt_locale                               - Undefined Weak Reference
    __sigvec_lookup                           - Undefined Weak Reference
    _atexit_init                              - Undefined Weak Reference
    _call_atexit_fns                          - Undefined Weak Reference
    _clock_init                               - Undefined Weak Reference
    _fp_trap_init                             - Undefined Weak Reference
    _fp_trap_shutdown                         - Undefined Weak Reference
    _get_lc_collate                           - Undefined Weak Reference
    _get_lc_ctype                             - Undefined Weak Reference
    _get_lc_monetary                          - Undefined Weak Reference
    _get_lc_numeric                           - Undefined Weak Reference
    _get_lc_time                              - Undefined Weak Reference
    _getenv_init                              - Undefined Weak Reference
    _handle_redirection                       - Undefined Weak Reference
    _init_alloc                               - Undefined Weak Reference
    _init_user_alloc                          - Undefined Weak Reference
    _initio                                   - Undefined Weak Reference
    _rand_init                                - Undefined Weak Reference
    _signal_finish                            - Undefined Weak Reference
    _signal_init                              - Undefined Weak Reference
    _terminate_alloc                          - Undefined Weak Reference
    _terminate_user_alloc                     - Undefined Weak Reference
    _terminateio                              - Undefined Weak Reference
    __main                                   0x000000cd   Thumb Code     8  __main.o(!!!main)
    __scatterload                            0x000000d5   Thumb Code     0  __scatter.o(!!!scatter)
    __scatterload_rt2                        0x000000d5   Thumb Code    44  __scatter.o(!!!scatter)
    __scatterload_rt2_thumb_only             0x000000d5   Thumb Code     0  __scatter.o(!!!scatter)
    __scatterload_null                       0x000000e3   Thumb Code     0  __scatter.o(!!!scatter)
    __decompress                             0x00000109   Thumb Code    90  __dczerorl2.o(!!dczerorl2)
    __decompress1                            0x00000109   Thumb Code     0  __dczerorl2.o(!!dczerorl2)
    __scatterload_zeroinit                   0x00000165   Thumb Code    28  __scatter_zi.o(!!handler_zi)
    __rt_lib_init                            0x00000181   Thumb Code     0  libinit.o(.ARM.Collect$$libinit$$00000000)
    __rt_lib_init_alloca_1                   0x00000187   Thumb Code     0  libinit2.o(.ARM.Collect$$libinit$$0000002A)
    __rt_lib_init_argv_1                     0x00000187   Thumb Code     0  libinit2.o(.ARM.Collect$$libinit$$00000028)
    __rt_lib_init_atexit_1                   0x00000187   Thumb Code     0  libinit2.o(.ARM.Collect$$libinit$$00000017)
    __rt_lib_init_clock_1                    0x00000187   Thumb Code     0  libinit2.o(.ARM.Collect$$libinit$$0000001D)
    __rt_lib_init_cpp_1                      0x00000187   Thumb Code     0  libinit2.o(.ARM.Collect$$libinit$$0000002E)
    __rt_lib_init_exceptions_1               0x00000187   Thumb Code     0  libinit2.o(.ARM.Collect$$libinit$$0000002C)
    __rt_lib_init_fp_trap_1                  0x00000187   Thumb Code     0  libinit2.o(.ARM.Collect$$libinit$$0000001B)
    __rt_lib_init_getenv_1                   0x00000187   Thumb Code     0  libinit2.o(.ARM.Collect$$libinit$$0000001F)
    __rt_lib_init_heap_1                     0x00000187   Thumb Code     0  libinit2.o(.ARM.Collect$$libinit$$00000006)
    __rt_lib_init_lc_collate_1               0x00000187   Thumb Code     0  libinit2.o(.ARM.Collect$$libinit$$0000000D)
    __rt_lib_init_lc_ctype_1                 0x00000187   Thumb Code     0  libinit2.o(.ARM.Collect$$libinit$$0000000F)
    __rt_lib_init_lc_monetary_1              0x00000187   Thumb Code     0  libinit2.o(.ARM.Collect$$libinit$$00000011)
    __rt_lib_init_lc_numeric_1               0x00000187   Thumb Code     0  libinit2.o(.ARM.Collect$$libinit$$00000013)
    __rt_lib_init_lc_time_1                  0x00000187   Thumb Code     0  libinit2.o(.ARM.Collect$$libinit$$00000015)
    __rt_lib_init_rand_1                     0x00000187   Thumb Code     0  libinit2.o(.ARM.Collect$$libinit$$0000000A)
    __rt_lib_init_return                     0x00000187   Thumb Code     0  libinit2.o(.ARM.Collect$$libinit$$0000002F)
    __rt_lib_init_signal_1                   0x00000187   Thumb Code     0  libinit2.o(.ARM.Collect$$libinit$$00000019)
    __rt_lib_init_stdio_1                    0x00000187   Thumb Code     0  libinit2.o(.ARM.Collect$$libinit$$00000021)
    __rt_lib_init_user_alloc_1               0x00000187   Thumb Code     0  libinit2.o(.ARM.Collect$$libinit$$00000008)
    __rt_lib_shutdown                        0x00000189   Thumb Code     0  libshutdown.o(.ARM.Collect$$libshutdown$$00000000)
    __rt_lib_shutdown_fp_trap_1              0x0000018b   Thumb Code     0  libshutdown2.o(.ARM.Collect$$libshutdown$$00000006)
    __rt_lib_shutdown_heap_1                 0x0000018b   Thumb Code     0  libshutdown2.o(.ARM.Collect$$libshutdown$$0000000E)
    __rt_lib_shutdown_return                 0x0000018b   Thumb Code     0  libshutdown2.o(.ARM.Collect$$libshutdown$$0000000F)
    __rt_lib_shutdown_signal_1               0x0000018b   Thumb Code     0  libshutdown2.o(.ARM.Collect$$libshutdown$$00000009)
    __rt_lib_shutdown_stdio_1                0x0000018b   Thumb Code     0  libshutdown2.o(.ARM.Collect$$libshutdown$$00000003)
    __rt_lib_shutdown_user_alloc_1           0x0000018b   Thumb Code     0  libshutdown2.o(.ARM.Collect$$libshutdown$$0000000B)
    __rt_entry                               0x0000018d   Thumb Code     0  rtentry.o(.ARM.Collect$$rtentry$$00000000)
    __rt_entry_presh_1                       0x0000018d   Thumb Code     0  rtentry2.o(.ARM.Collect$$rtentry$$00000002)
    __rt_entry_sh                            0x0000018d   Thumb Code     0  rtentry4.o(.ARM.Collect$$rtentry$$00000004)
    __rt_entry_li                            0x00000193   Thumb Code     0  rtentry2.o(.ARM.Collect$$rtentry$$0000000A)
    __rt_entry_postsh_1                      0x00000193   Thumb Code     0  rtentry2.o(.ARM.Collect$$rtentry$$00000009)
    __rt_entry_main                          0x00000197   Thumb Code     0  rtentry2.o(.ARM.Collect$$rtentry$$0000000D)
    __rt_entry_postli_1                      0x00000197   Thumb Code     0  rtentry2.o(.ARM.Collect$$rtentry$$0000000C)
    __rt_exit                                0x0000019f   Thumb Code     0  rtexit.o(.ARM.Collect$$rtexit$$00000000)
    __rt_exit_ls                             0x000001a1   Thumb Code     0  rtexit2.o(.ARM.Collect$$rtexit$$00000003)
    __rt_exit_prels_1                        0x000001a1   Thumb Code     0  rtexit2.o(.ARM.Collect$$rtexit$$00000002)
    __rt_exit_exit                           0x000001a5   Thumb Code     0  rtexit2.o(.ARM.Collect$$rtexit$$00000004)
    Reset_Handler                            0x000001ad   Thumb Code     8  startup_lpc17xx.o(.text)
    NMI_Handler                              0x000001b5   Thumb Code     2  startup_lpc17xx.o(.text)
    HardFault_Handler                        0x000001b7   Thumb Code     2  startup_lpc17xx.o(.text)
    MemManage_Handler                        0x000001b9   Thumb Code     2  startup_lpc17xx.o(.text)
    BusFault_Handler                         0x000001bb   Thumb Code     2  startup_lpc17xx.o(.text)
    UsageFault_Handler                       0x000001bd   Thumb Code     2  startup_lpc17xx.o(.text)
    SVC_Handler                              0x000001bf   Thumb Code     2  startup_lpc17xx.o(.text)
    DebugMon_Handler                         0x000001c1   Thumb Code     2  startup_lpc17xx.o(.text)
    PendSV_Handler                           0x000001c3   Thumb Code     2  startup_lpc17xx.o(.text)
    ADC_IRQHandler                           0x000001c7   Thumb Code     0  startup_lpc17xx.o(.text)
    BOD_IRQHandler                           0x000001c7   Thumb Code     0  startup_lpc17xx.o(.text)
    CANActivity_IRQHandler                   0x000001c7   Thumb Code     0  startup_lpc17xx.o(.text)
    CAN_IRQHandler                           0x000001c7   Thumb Code     0  startup_lpc17xx.o(.text)
    DMA_IRQHandler                           0x000001c7   Thumb Code     0  startup_lpc17xx.o(.text)
    EINT0_IRQHandler                         0x000001c7   Thumb Code     0  startup_lpc17xx.o(.text)
    EINT2_IRQHandler                         0x000001c7   Thumb Code     0  startup_lpc17xx.o(.text)
    ENET_IRQHandler                          0x000001c7   Thumb Code     0  startup_lpc17xx.o(.text)
    I2C1_IRQHandler                          0x000001c7   Thumb Code     0  startup_lpc17xx.o(.text)
    I2C2_IRQHandler                          0x000001c7   Thumb Code     0  startup_lpc17xx.o(.text)
    I2S_IRQHandler                           0x000001c7   Thumb Code     0  startup_lpc17xx.o(.text)
    MCPWM_IRQHandler                         0x000001c7   Thumb Code     0  startup_lpc17xx.o(.text)
    PLL0_IRQHandler                          0x000001c7   Thumb Code     0  startup_lpc17xx.o(.text)
    PLL1_IRQHandler                          0x000001c7   Thumb Code     0  startup_lpc17xx.o(.text)
    QEI_IRQHandler                           0x000001c7   Thumb Code     0  startup_lpc17xx.o(.text)
    RIT_IRQHandler                           0x000001c7   Thumb Code     0  startup_lpc17xx.o(.text)
    RTC_IRQHandler                           0x000001c7   Thumb Code     0  startup_lpc17xx.o(.text)
    SPI_IRQHandler                           0x000001c7   Thumb Code     0  startup_lpc17xx.o(.text)
    SSP0_IRQHandler                          0x000001c7   Thumb Code     0  startup_lpc17xx.o(.text)
    SSP1_IRQHandler                          0x000001c7   Thumb Code     0  startup_lpc17xx.o(.text)
    TIMER3_IRQHandler                        0x000001c7   Thumb Code     0  startup_lpc17xx.o(.text)
    UART2_IRQHandler                         0x000001c7   Thumb Code     0  startup_lpc17xx.o(.text)
    UART3_IRQHandler                         0x000001c7   Thumb Code     0  startup_lpc17xx.o(.text)
    USBActivity_IRQHandler                   0x000001c7   Thumb Code     0  startup_lpc17xx.o(.text)
    USB_IRQHandler                           0x000001c7   Thumb Code     0  startup_lpc17xx.o(.text)
    WDT_IRQHandler                           0x000001c7   Thumb Code     0  startup_lpc17xx.o(.text)
    __user_initial_stackheap                 0x000001c9   Thumb Code     0  startup_lpc17xx.o(.text)
    main                                     0x000001e9   Thumb Code    22  main.o(.text)
    SysTick_Handler                          0x00000229   Thumb Code    12  delay.o(.text)
    delay1                                   0x00000235   Thumb Code     2  delay.o(.text)
    DelayUs2x                                0x00000237   Thumb Code    12  delay.o(.text)
    Delay1Ms                                 0x00000243   Thumb Code    28  delay.o(.text)
    Relay_Init                               0x00000265   Thumb Code    46  crelay.o(.text)
    Fire_Relay_On                            0x00000293   Thumb Code    14  crelay.o(.text)
    Fire_Relay_Off                           0x000002a1   Thumb Code    14  crelay.o(.text)
    Fault_Relay_On                           0x000002af   Thumb Code    14  crelay.o(.text)
    Fault_Relay_Off                          0x000002bd   Thumb Code    14  crelay.o(.text)
    EndInt                                   0x000002d5   Thumb Code    12  cintstend.o(.text)
    StartInt                                 0x000002e1   Thumb Code     8  cintstend.o(.text)
    __use_two_region_memory                  0x000002e9   Thumb Code     2  heapauxi.o(.text)
    __rt_heap_escrow$2region                 0x000002eb   Thumb Code     2  heapauxi.o(.text)
    __rt_heap_expand$2region                 0x000002ed   Thumb Code     2  heapauxi.o(.text)
    exit                                     0x000002ef   Thumb Code    12  exit.o(.text)
    __I$use$semihosting                      0x000002fb   Thumb Code     0  use_no_semi.o(.text)
    __use_no_semihosting_swi                 0x000002fb   Thumb Code     2  use_no_semi.o(.text)
    SystemInit                               0x00000301   Thumb Code   174  system_lpc17xx.o(.text)
    SystemClockUpdate                        0x000003af   Thumb Code   320  system_lpc17xx.o(.text)
    SSP_SSELToggle                           0x00000535   Thumb Code    66  ssp.o(.text)
    SSP1_Init                                0x00000577   Thumb Code   232  ssp.o(.text)
    SPI_FLASH_SendByte                       0x0000065f   Thumb Code    26  ssp.o(.text)
    M25P80_CMD1B                             0x00000679   Thumb Code    36  ssp.o(.text)
    M25P80_CMD1B_READ1B                      0x0000069d   Thumb Code    46  ssp.o(.text)
    M25P80_CMD1B_S1B                         0x000006cb   Thumb Code    44  ssp.o(.text)
    M25P80_Write_En                          0x000006f7   Thumb Code    40  ssp.o(.text)
    M25P80_WP_En                             0x0000071f   Thumb Code    40  ssp.o(.text)
    M25P80_Busy                              0x00000747   Thumb Code    58  ssp.o(.text)
    M25P80_Section_Erase                     0x00000781   Thumb Code    96  ssp.o(.text)
    M25P80_Bulk_Erase                        0x000007e1   Thumb Code    28  ssp.o(.text)
    M25P80_Write_1Byte                       0x000007fd   Thumb Code   104  ssp.o(.text)
    M25P80_Write_Bytes                       0x00000865   Thumb Code   118  ssp.o(.text)
    M25P80_Read_1Byte                        0x000008db   Thumb Code   110  ssp.o(.text)
    M25P80_Read_Bytes                        0x00000949   Thumb Code   114  ssp.o(.text)
    SSPSend                                  0x000009bb   Thumb Code   108  ssp.o(.text)
    SSPReceive                               0x00000a27   Thumb Code    78  ssp.o(.text)
    M25P80_ReadFast_1Byte                    0x00000a75   Thumb Code    94  ssp.o(.text)
    Wait_I2c_End                             0x00000b01   Thumb Code    48  i2c.o(.text)
    I2C0_Init                                0x00000b31   Thumb Code   110  i2c.o(.text)
    i2c0_enable                              0x00000b9f   Thumb Code    18  i2c.o(.text)
    i2c0_disable                             0x00000bb1   Thumb Code    10  i2c.o(.text)
    I2CIntEnd                                0x00000bbb   Thumb Code    10  i2c.o(.text)
    I2CIntStart                              0x00000bc5   Thumb Code    24  i2c.o(.text)
    ISendByte                                0x00000bdd   Thumb Code    48  i2c.o(.text)
    IRcvByte                                 0x00000c0d   Thumb Code    50  i2c.o(.text)
    I2C_ReadNByte                            0x00000c3f   Thumb Code   126  i2c.o(.text)
    I2C_WriteNByte                           0x00000cbd   Thumb Code   120  i2c.o(.text)
    I2C0_IRQHandler                          0x00000d35   Thumb Code   572  i2c.o(.text)
    ClrData3                                 0x00000fd1   Thumb Code    20  uart.o(.text)
    clr_tp                                   0x00000fe5   Thumb Code     8  uart.o(.text)
    GetCom1Data0                             0x00000fed   Thumb Code     8  uart.o(.text)
    ClrCom1Data0                             0x00000ff5   Thumb Code    20  uart.o(.text)
    lcd_printf                               0x00001009   Thumb Code     2  uart.o(.text)
    AnnCounterInit                           0x0000100b   Thumb Code    38  uart.o(.text)
    NoteData_Init                            0x00001031   Thumb Code   108  uart.o(.text)
    GetCom0Ann                               0x0000109d   Thumb Code    18  uart.o(.text)
    SetConvertdataAll                        0x000010af   Thumb Code    64  uart.o(.text)
    UART1_IRQHandler                         0x000010ef   Thumb Code   148  uart.o(.text)
    GetAnnFlag                               0x00001183   Thumb Code     6  uart.o(.text)
    GetAnnRow                                0x00001189   Thumb Code    54  uart.o(.text)
    recv_note_info                           0x000011ef   Thumb Code   130  uart.o(.text)
    UART0_IRQHandler                         0x00001271   Thumb Code    78  uart.o(.text)
    CSaveAnn                                 0x000012bf   Thumb Code    68  uart.o(.text)
    HandleNote                               0x00001303   Thumb Code   378  uart.o(.text)
    UARTInit                                 0x0000147d   Thumb Code   330  uart.o(.text)
    UartIntEnd                               0x000015c7   Thumb Code    16  uart.o(.text)
    UartIntStart                             0x000015d7   Thumb Code    42  uart.o(.text)
    uart_all_disable                         0x00001601   Thumb Code    16  uart.o(.text)
    uart_all_enable                          0x00001611   Thumb Code    42  uart.o(.text)
    UARTSend                                 0x0000163b   Thumb Code    40  uart.o(.text)
    Uart1SendByte                            0x00001663   Thumb Code    18  uart.o(.text)
    UART0_SendString                         0x00001675   Thumb Code    24  uart.o(.text)
    UART1_SendString                         0x0000168d   Thumb Code    22  uart.o(.text)
    uart1GetByte                             0x000016a3   Thumb Code    18  uart.o(.text)
    uart0GetByte                             0x000016b5   Thumb Code    18  uart.o(.text)
    uart1GetStr                              0x000016c7   Thumb Code    22  uart.o(.text)
    uart0GetStr                              0x000016dd   Thumb Code    22  uart.o(.text)
    puts__                                   0x000016f3   Thumb Code    24  uart.o(.text)
    GPIOinit                                 0x000017ad   Thumb Code   446  gpioinit.o(.text)
    timern_enable                            0x0000199d   Thumb Code    90  ctime.o(.text)
    timern_disable                           0x000019f7   Thumb Code    58  ctime.o(.text)
    init_timer                               0x00001a31   Thumb Code   282  ctime.o(.text)
    SetTimeTickCounter                       0x00001b4b   Thumb Code     6  ctime.o(.text)
    AddTimeTickCounter                       0x00001b51   Thumb Code    12  ctime.o(.text)
    GetTimeTickCounter                       0x00001b5d   Thumb Code     6  ctime.o(.text)
    SetHeartTick                             0x00001b63   Thumb Code     6  ctime.o(.text)
    AddHeartTick                             0x00001b69   Thumb Code    12  ctime.o(.text)
    GetHeartTick                             0x00001b75   Thumb Code     6  ctime.o(.text)
    AddSpeakerTick                           0x00001b7b   Thumb Code    12  ctime.o(.text)
    SetSpeakerTick                           0x00001b87   Thumb Code     6  ctime.o(.text)
    GetSpeakerTick                           0x00001b8d   Thumb Code     6  ctime.o(.text)
    TIMER0_IRQHandler                        0x00001b93   Thumb Code    24  ctime.o(.text)
    TIMER1_IRQHandler                        0x00001bab   Thumb Code    22  ctime.o(.text)
    TIMER2_IRQHandler                        0x00001bc1   Thumb Code    14  ctime.o(.text)
    vAddLedFlag                              0x00001bcf   Thumb Code    12  ctime.o(.text)
    vClrLedFlag                              0x00001bdb   Thumb Code     8  ctime.o(.text)
    vGetLedFlag                              0x00001be3   Thumb Code     6  ctime.o(.text)
    vAddScreenMask                           0x00001be9   Thumb Code    12  ctime.o(.text)
    vGetScreenMask                           0x00001bf5   Thumb Code     6  ctime.o(.text)
    vClrScreenMask                           0x00001bfb   Thumb Code     8  ctime.o(.text)
    OffLcd                                   0x00001c03   Thumb Code    30  ctime.o(.text)
    OnLCD                                    0x00001c21   Thumb Code    20  ctime.o(.text)
    enable_timer                             0x00001c35   Thumb Code    48  ctime.o(.text)
    disable_timer                            0x00001c65   Thumb Code    48  ctime.o(.text)
    reset_timer                              0x00001c95   Thumb Code    66  ctime.o(.text)
    CLedShow                                 0x00001cd7   Thumb Code    34  ctime.o(.text)
    CSpeakerPWM                              0x00001cf9   Thumb Code     2  ctime.o(.text)
    Get_CTime0Def                            0x00001d61   Thumb Code     6  ctimedef.o(.text)
    Set_CTime0Def                            0x00001d67   Thumb Code    16  ctimedef.o(.text)
    Sel_CTime0Def                            0x00001d77   Thumb Code    14  ctimedef.o(.text)
    Get_Timer_100us                          0x00001d85   Thumb Code    14  ctimedef.o(.text)
    Get_Timer_200us                          0x00001d93   Thumb Code    16  ctimedef.o(.text)
    Get_Timer_600us                          0x00001da3   Thumb Code    20  ctimedef.o(.text)
    Get_Timer_2ms                            0x00001db7   Thumb Code    20  ctimedef.o(.text)
    Get_Timer_5ms                            0x00001dcb   Thumb Code    18  ctimedef.o(.text)
    Get_Timer_8ms                            0x00001ddd   Thumb Code    20  ctimedef.o(.text)
    Get_Timer_10ms                           0x00001df1   Thumb Code    18  ctimedef.o(.text)
    Get_Timer_20ms                           0x00001e03   Thumb Code    18  ctimedef.o(.text)
    AddTwoFallEdgeCounter                    0x00001e15   Thumb Code    12  ctimedef.o(.text)
    ClrTwoFallEdgeCounter                    0x00001e21   Thumb Code     8  ctimedef.o(.text)
    GetTwoFallEdgeCounter                    0x00001e29   Thumb Code     6  ctimedef.o(.text)
    AddRisedgeCounter                        0x00001e2f   Thumb Code    12  ctimedef.o(.text)
    ClrRisedgeCounter                        0x00001e3b   Thumb Code     8  ctimedef.o(.text)
    GetRisedgeCounter                        0x00001e43   Thumb Code     6  ctimedef.o(.text)
    AddWait2msCounter                        0x00001e49   Thumb Code    12  ctimedef.o(.text)
    ClrWait2msCounter                        0x00001e55   Thumb Code     8  ctimedef.o(.text)
    GetWait2msCounter                        0x00001e5d   Thumb Code     6  ctimedef.o(.text)
    Is2msArrived                             0x00001e63   Thumb Code    16  ctimedef.o(.text)
    Enable2ms                                0x00001e73   Thumb Code     8  ctimedef.o(.text)
    Disable2ms                               0x00001e7b   Thumb Code     8  ctimedef.o(.text)
    Get2msState                              0x00001e83   Thumb Code     6  ctimedef.o(.text)
    Set2msArrived                            0x00001e89   Thumb Code    16  ctimedef.o(.text)
    Get2msArrived                            0x00001e99   Thumb Code    10  ctimedef.o(.text)
    Clr2msArrived                            0x00001ea3   Thumb Code    14  ctimedef.o(.text)
    beepReverse                              0x00001ed1   Thumb Code    46  pwm.o(.text)
    PWM1_IRQHandler                          0x00001eff   Thumb Code    32  pwm.o(.text)
    PWM_Init                                 0x00001f1f   Thumb Code    78  pwm.o(.text)
    pwm1_enable                              0x00001f6d   Thumb Code    10  pwm.o(.text)
    pwm1_disable                             0x00001f77   Thumb Code    18  pwm.o(.text)
    PWM1_Set                                 0x00001f89   Thumb Code    18  pwm.o(.text)
    PWM1_Start                               0x00001f9b   Thumb Code    14  pwm.o(.text)
    get_PWM1_Started                         0x00001fa9   Thumb Code     6  pwm.o(.text)
    set_PWM1_Started                         0x00001faf   Thumb Code     8  pwm.o(.text)
    clr_PWM1_Started                         0x00001fb7   Thumb Code     8  pwm.o(.text)
    PWM1_Stop                                0x00001fbf   Thumb Code    10  pwm.o(.text)
    extint3_enable                           0x00002021   Thumb Code    18  extint.o(.text)
    extint3_disable                          0x00002033   Thumb Code    10  extint.o(.text)
    Eint3_Init                               0x0000203d   Thumb Code    46  extint.o(.text)
    Eint_Dis                                 0x0000206b   Thumb Code    46  extint.o(.text)
    Eint_En                                  0x00002099   Thumb Code    52  extint.o(.text)
    Eint_DisAll_Exuart                       0x000020cd   Thumb Code    42  extint.o(.text)
    Eint_EnAll_Exuart                        0x000020f7   Thumb Code    48  extint.o(.text)
    SetE1_flag                               0x00002127   Thumb Code     8  extint.o(.text)
    ClrE1_flag                               0x0000212f   Thumb Code     8  extint.o(.text)
    GetE1_flag                               0x00002137   Thumb Code     6  extint.o(.text)
    SetE3_flag                               0x0000213d   Thumb Code     8  extint.o(.text)
    ClrE3_flag                               0x00002145   Thumb Code     8  extint.o(.text)
    GetE3_flag                               0x0000214d   Thumb Code     6  extint.o(.text)
    cExt3IntFlow                             0x00002153   Thumb Code    10  extint.o(.text)
    cExt3IntRise                             0x0000215d   Thumb Code    10  extint.o(.text)
    cExt3IntClrFlow                          0x00002167   Thumb Code    20  extint.o(.text)
    cExt3IntClrRise                          0x0000217b   Thumb Code    20  extint.o(.text)
    extint1_enable                           0x0000218f   Thumb Code    18  extint.o(.text)
    extint1_disable                          0x000021a1   Thumb Code    10  extint.o(.text)
    EINT1_IRQHandler                         0x000021ab   Thumb Code    22  extint.o(.text)
    Init_CGpioIrq                            0x0000221d   Thumb Code   120  cgpioirq.o(.text)
    EINT3_IRQHandler                         0x00002295   Thumb Code    68  cgpioirq.o(.text)
    DelayMs                                  0x000022fd   Thumb Code    24  lcd.o(.text)
    DATAout                                  0x00002315   Thumb Code    84  lcd.o(.text)
    CheckState                               0x00002369   Thumb Code    78  lcd.o(.text)
    SendCommandToLCD                         0x000023b7   Thumb Code    60  lcd.o(.text)
    SetLine                                  0x000023f3   Thumb Code    16  lcd.o(.text)
    SetStartLine                             0x00002403   Thumb Code    16  lcd.o(.text)
    SetColumn                                0x00002413   Thumb Code    20  lcd.o(.text)
    SetOnOff                                 0x00002427   Thumb Code    16  lcd.o(.text)
    WriteByte                                0x00002437   Thumb Code    60  lcd.o(.text)
    WriteDoubleByte                          0x00002473   Thumb Code    52  lcd.o(.text)
    WriteBlackByte                           0x000024a7   Thumb Code    64  lcd.o(.text)
    SelectScreen                             0x000024e7   Thumb Code    90  lcd.o(.text)
    ClearScreen                              0x00002541   Thumb Code    54  lcd.o(.text)
    Clear16Screen                            0x00002577   Thumb Code    54  lcd.o(.text)
    delay                                    0x000025ad   Thumb Code    26  lcd.o(.text)
    delay_long                               0x000025c7   Thumb Code    30  lcd.o(.text)
    InitLCD                                  0x000025e5   Thumb Code    50  lcd.o(.text)
    WriteBytedata                            0x00002617   Thumb Code     2  lcd.o(.text)
    DisplayJBHZKBlack                        0x00002619   Thumb Code   444  lcd.o(.text)
    DisplayJBHZK                             0x000027d5   Thumb Code   434  lcd.o(.text)
    Display                                  0x00002987   Thumb Code   102  lcd.o(.text)
    DisplayBlack                             0x000029ed   Thumb Code    72  lcd.o(.text)
    Display1                                 0x00002a35   Thumb Code   102  lcd.o(.text)
    DisplaynumberJBHZK                       0x00002a9b   Thumb Code     2  lcd.o(.text)
    Displaynumber                            0x00002a9d   Thumb Code    96  lcd.o(.text)
    DisplaynumberBlack                       0x00002afd   Thumb Code    96  lcd.o(.text)
    WriteBlue                                0x00002b5d   Thumb Code    54  lcd.o(.text)
    PCF8563_Set                              0x00002ba5   Thumb Code   292  pcf8563.o(.text)
    PCF8563_Read                             0x00002cc9   Thumb Code   282  pcf8563.o(.text)
    getcurrent_date                          0x00002de3   Thumb Code    12  pcf8563.o(.text)
    PCF8563_SS                               0x00002def   Thumb Code    36  pcf8563.o(.text)
    PCF8563_Set_TD                           0x00002e13   Thumb Code   286  pcf8563.o(.text)
    PCF8563_Get_TD                           0x00002f31   Thumb Code   218  pcf8563.o(.text)
    PCF8563_Set_ClkOut                       0x0000300b   Thumb Code    22  pcf8563.o(.text)
    PCF8563_Set_Alarm                        0x00003021   Thumb Code    68  pcf8563.o(.text)
    PCF8563_Set_Timer                        0x00003065   Thumb Code    32  pcf8563.o(.text)
    PCF8563_INT_State                        0x00003085   Thumb Code   130  pcf8563.o(.text)
    PCF8563_Init                             0x00003107   Thumb Code    68  pcf8563.o(.text)
    GetBackValue                             0x00003151   Thumb Code     6  key.o(.text)
    ClrBackValue                             0x00003157   Thumb Code     8  key.o(.text)
    Scan_Key                                 0x0000315f   Thumb Code   228  key.o(.text)
    Get_KeyValue                             0x00003243   Thumb Code   164  key.o(.text)
    Led_Fire_Off                             0x000032f5   Thumb Code    14  cled.o(.text)
    Led_Fault_Off                            0x00003303   Thumb Code    14  cled.o(.text)
    Led_Wireless_Off                         0x00003311   Thumb Code    14  cled.o(.text)
    Led_Silence_Off                          0x0000331f   Thumb Code    14  cled.o(.text)
    Led_Run_Off                              0x0000332d   Thumb Code    14  cled.o(.text)
    Led_Fire_Init                            0x0000333b   Thumb Code    36  cled.o(.text)
    Led_Fault_Init                           0x0000335f   Thumb Code    36  cled.o(.text)
    Led_Wireless_Init                        0x00003383   Thumb Code    36  cled.o(.text)
    Led_Silence_Init                         0x000033a7   Thumb Code    36  cled.o(.text)
    Led_Run_Init                             0x000033cb   Thumb Code    36  cled.o(.text)
    Led_Init                                 0x000033ef   Thumb Code    44  cled.o(.text)
    Led_Fire_On                              0x0000341b   Thumb Code    14  cled.o(.text)
    Led_Fault_On                             0x00003429   Thumb Code    14  cled.o(.text)
    Led_Wireless_On                          0x00003437   Thumb Code    14  cled.o(.text)
    Led_Silence_On                           0x00003445   Thumb Code    14  cled.o(.text)
    Led_Run_On                               0x00003453   Thumb Code    14  cled.o(.text)
    Led_ALL_On                               0x00003461   Thumb Code    24  cled.o(.text)
    Led_Off                                  0x00003479   Thumb Code    24  cled.o(.text)
    SetFirstAlarm_Flag                       0x00003499   Thumb Code     6  ccomhandle.o(.text)
    SetDisplay_alarm_flag                    0x0000349f   Thumb Code     6  ccomhandle.o(.text)
    GetDisplay_alarm_flag                    0x000034a5   Thumb Code     6  ccomhandle.o(.text)
    Setdisplay_alarm                         0x000034ab   Thumb Code     6  ccomhandle.o(.text)
    Getdisplay_alarm                         0x000034b1   Thumb Code     8  ccomhandle.o(.text)
    Getalarmtime                             0x000034b9   Thumb Code    12  ccomhandle.o(.text)
    SetSum                                   0x000034c5   Thumb Code     6  ccomhandle.o(.text)
    GetSum                                   0x000034cb   Thumb Code     8  ccomhandle.o(.text)
    SetConvertdata                           0x000034d3   Thumb Code     6  ccomhandle.o(.text)
    check_lp_running                         0x000034d9   Thumb Code    14  ccomhandle.o(.text)
    UartBindSend                             0x000034e7   Thumb Code   108  ccomhandle.o(.text)
    wireless_data_check                      0x00003553   Thumb Code   108  ccomhandle.o(.text)
    find_zone_comp                           0x000035bf   Thumb Code    46  ccomhandle.o(.text)
    printf_zone_comp_info                    0x000035ed   Thumb Code    44  ccomhandle.o(.text)
    autoadd_compreg                          0x00003619   Thumb Code    22  ccomhandle.o(.text)
    CompareAddr                              0x0000362f   Thumb Code   118  ccomhandle.o(.text)
    comp_reg_deal                            0x000036a5   Thumb Code   858  ccomhandle.o(.text)
    inquiry_signal_strength                  0x000039ff   Thumb Code   134  ccomhandle.o(.text)
    is_0xff                                  0x00003a85   Thumb Code    14  ccomhandle.o(.text)
    check_psn_all0xff                        0x00003a93   Thumb Code    58  ccomhandle.o(.text)
    is_my_psn                                0x00003acd   Thumb Code    50  ccomhandle.o(.text)
    led_relay_deal                           0x00003aff   Thumb Code    16  ccomhandle.o(.text)
    set_firealarm_ciraddr                    0x00003b0f   Thumb Code    20  ccomhandle.o(.text)
    set_faultalarm_ciraddr                   0x00003b23   Thumb Code    20  ccomhandle.o(.text)
    set_normalalarm_ciraddr                  0x00003b37   Thumb Code    28  ccomhandle.o(.text)
    menu_firealarm_face                      0x00003b53   Thumb Code   174  ccomhandle.o(.text)
    menu_fault_deal                          0x00003c01   Thumb Code   202  ccomhandle.o(.text)
    normal_deal                              0x00003ccb   Thumb Code   470  ccomhandle.o(.text)
    HandleInfo_Uart1                         0x00003ea1   Thumb Code   652  ccomhandle.o(.text)
    GetHeart                                 0x00004211   Thumb Code     8  ccompara.o(.text)
    ReadHeart                                0x00004219   Thumb Code    46  ccompara.o(.text)
    data_from_data0                          0x00004247   Thumb Code    78  ccompara.o(.text)
    ClrComData                               0x00004295   Thumb Code    44  ccompara.o(.text)
    GetComData                               0x000042c1   Thumb Code    12  ccompara.o(.text)
    AddBattLowSum                            0x000042cd   Thumb Code    12  ccompara.o(.text)
    GetBattLowSum                            0x000042d9   Thumb Code     6  ccompara.o(.text)
    AddBrokenSum                             0x000042df   Thumb Code    12  ccompara.o(.text)
    GetBrokenSum                             0x000042eb   Thumb Code     6  ccompara.o(.text)
    MergeData                                0x000042f1   Thumb Code    88  ccompara.o(.text)
    Com0DataUnzip                            0x00004349   Thumb Code   284  ccompara.o(.text)
    Com0Handle                               0x00004465   Thumb Code    12  ccompara.o(.text)
    AddHeartFaultFlag                        0x00004471   Thumb Code    12  ccompara.o(.text)
    SetHeartFaultFlag                        0x0000447d   Thumb Code     8  ccompara.o(.text)
    ClrHeartFaultFlag                        0x00004485   Thumb Code     8  ccompara.o(.text)
    GetHeartFaultFlag                        0x0000448d   Thumb Code     6  ccompara.o(.text)
    SetAlarmFlag                             0x00004493   Thumb Code     6  ccompara.o(.text)
    GetAlarmFlag                             0x00004499   Thumb Code     8  ccompara.o(.text)
    GetFirstAlarm_Addr                       0x000044a1   Thumb Code     8  ccompara.o(.text)
    AddAlarmInfoFlag                         0x000044a9   Thumb Code    12  ccompara.o(.text)
    SubAlarmInfoFlag                         0x000044b5   Thumb Code    12  ccompara.o(.text)
    SetAlarmInfoFlag                         0x000044c1   Thumb Code     6  ccompara.o(.text)
    GetAlarmInfoFlag                         0x000044c7   Thumb Code     6  ccompara.o(.text)
    SetReleaseFlag                           0x000044cd   Thumb Code     6  ccompara.o(.text)
    GetReleaseFlag                           0x000044d3   Thumb Code     6  ccompara.o(.text)
    SetFlag_195                              0x000044d9   Thumb Code     6  ccompara.o(.text)
    GetFlag_195                              0x000044df   Thumb Code     6  ccompara.o(.text)
    SetCirAddrCurrent                        0x000044e5   Thumb Code     6  ccompara.o(.text)
    GetCirAddrCurrent                        0x000044eb   Thumb Code     6  ccompara.o(.text)
    CompareCirAddr                           0x000044f1   Thumb Code    56  ccompara.o(.text)
    Init_CirAddrInfo                         0x00004529   Thumb Code    74  ccompara.o(.text)
    ClrCirAlarmData                          0x00004573   Thumb Code    54  ccompara.o(.text)
    CirAlarmDataInit                         0x000045a9   Thumb Code    20  ccompara.o(.text)
    SetFlagLed                               0x000045bd   Thumb Code     6  ccompara.o(.text)
    GetFlagLed                               0x000045c3   Thumb Code     6  ccompara.o(.text)
    SetAlarm_Circuit_Flag                    0x0000463d   Thumb Code     6  caddresscount.o(.text)
    AddCirCounter                            0x00004643   Thumb Code    12  caddresscount.o(.text)
    GetCirCounter                            0x0000464f   Thumb Code     6  caddresscount.o(.text)
    ClrCirCounter                            0x00004655   Thumb Code     8  caddresscount.o(.text)
    SetSync                                  0x0000465d   Thumb Code     8  caddresscount.o(.text)
    GetSync                                  0x00004665   Thumb Code     6  caddresscount.o(.text)
    ClrSync                                  0x0000466b   Thumb Code     8  caddresscount.o(.text)
    addxialasignal                           0x00004673   Thumb Code    24  caddresscount.o(.text)
    getxialasignal                           0x0000468b   Thumb Code     6  caddresscount.o(.text)
    clr_xialasignal                          0x00004691   Thumb Code     8  caddresscount.o(.text)
    add_weixialasignal                       0x00004699   Thumb Code    24  caddresscount.o(.text)
    get_weixialasignal                       0x000046b1   Thumb Code     6  caddresscount.o(.text)
    clr_weixialasignal                       0x000046b7   Thumb Code     8  caddresscount.o(.text)
    Clr_Alarm                                0x000046bf   Thumb Code   102  caddresscount.o(.text)
    SaveData195                              0x000047a5   Thumb Code     6  csendto195.o(.text)
    GetData195                               0x000047ab   Thumb Code     8  csendto195.o(.text)
    Query_ByUart0                            0x000047b3   Thumb Code   120  csendto195.o(.text)
    GetMainGrap                              0x00004831   Thumb Code    82  cgetgrap.o(.text)
    GetSetGrap                               0x00004883   Thumb Code    60  cgetgrap.o(.text)
    GetCheckGrap                             0x000048bf   Thumb Code    48  cgetgrap.o(.text)
    GetTestGrap                              0x000048ef   Thumb Code    36  cgetgrap.o(.text)
    SetCounter1                              0x00004915   Thumb Code     6  ckeycounter.o(.text)
    AddCounter1                              0x0000491b   Thumb Code    12  ckeycounter.o(.text)
    SubCounter1                              0x00004927   Thumb Code    12  ckeycounter.o(.text)
    GetCounter1                              0x00004933   Thumb Code     6  ckeycounter.o(.text)
    SetCounter2                              0x00004939   Thumb Code     6  ckeycounter.o(.text)
    AddCounter2                              0x0000493f   Thumb Code    12  ckeycounter.o(.text)
    SubCounter2                              0x0000494b   Thumb Code    12  ckeycounter.o(.text)
    GetCounter2                              0x00004957   Thumb Code     6  ckeycounter.o(.text)
    SetCounter3                              0x0000495d   Thumb Code     6  ckeycounter.o(.text)
    AddCounter3                              0x00004963   Thumb Code    12  ckeycounter.o(.text)
    SubCounter3                              0x0000496f   Thumb Code    12  ckeycounter.o(.text)
    GetCounter3                              0x0000497b   Thumb Code     6  ckeycounter.o(.text)
    SetGrapCount                             0x00004981   Thumb Code     6  ckeycounter.o(.text)
    AddGrapCount                             0x00004987   Thumb Code    12  ckeycounter.o(.text)
    SubGrapCount                             0x00004993   Thumb Code    12  ckeycounter.o(.text)
    ClrGrapCount                             0x0000499f   Thumb Code     8  ckeycounter.o(.text)
    GetGrapCount                             0x000049a7   Thumb Code     6  ckeycounter.o(.text)
    AddMenuFlag                              0x000049ad   Thumb Code    12  ckeycounter.o(.text)
    SubMenuFlag                              0x000049b9   Thumb Code    12  ckeycounter.o(.text)
    GetMenuFlag                              0x000049c5   Thumb Code     6  ckeycounter.o(.text)
    SetMenuFlag                              0x000049cb   Thumb Code     6  ckeycounter.o(.text)
    SetPasswordFlag                          0x000049d1   Thumb Code     6  ckeycounter.o(.text)
    GetPasswordFlag                          0x000049d7   Thumb Code     6  ckeycounter.o(.text)
    ClrHisCountDown                          0x000049ed   Thumb Code     8  ctaskdown.o(.text)
    ClrHistCount                             0x000049f5   Thumb Code     8  ctaskdown.o(.text)
    Level2_Down                              0x000049fd   Thumb Code   136  ctaskdown.o(.text)
    Level33_Down                             0x00004a85   Thumb Code    88  ctaskdown.o(.text)
    hist_item                                0x00004add   Thumb Code     6  ctaskdown.o(.text)
    Level32_Down                             0x00004ae3   Thumb Code   272  ctaskdown.o(.text)
    setup_timedate_down                      0x00004bf3   Thumb Code   302  ctaskdown.o(.text)
    setup_setcomp_down                       0x00004d21   Thumb Code   106  ctaskdown.o(.text)
    setup_compreg_down                       0x00004d8b   Thumb Code   306  ctaskdown.o(.text)
    setup_localaddr_down                     0x00004ebd   Thumb Code   286  ctaskdown.o(.text)
    setup_Down                               0x00004fdb   Thumb Code    54  ctaskdown.o(.text)
    Level3_Down                              0x00005011   Thumb Code    50  ctaskdown.o(.text)
    Level4_Down                              0x00005043   Thumb Code    32  ctaskdown.o(.text)
    CLevel1_Return                           0x00005065   Thumb Code   144  ctaskreturn.o(.text)
    CLevel21_Return                          0x000050f5   Thumb Code    96  ctaskreturn.o(.text)
    CLevel22_Return                          0x00005155   Thumb Code    82  ctaskreturn.o(.text)
    CLevel23_Return                          0x000051a7   Thumb Code    68  ctaskreturn.o(.text)
    CLevel3_Return                           0x000051eb   Thumb Code    48  ctaskreturn.o(.text)
    SetZjFlag                                0x00005225   Thumb Code     6  ctasksure.o(.text)
    GetZjFlag                                0x0000522b   Thumb Code     6  ctasksure.o(.text)
    Set_Note_Flag                            0x00005231   Thumb Code    16  ctasksure.o(.text)
    Clr_Note_Flag                            0x00005241   Thumb Code     8  ctasksure.o(.text)
    Get_Note_Flag                            0x00005249   Thumb Code     6  ctasksure.o(.text)
    setup_ok                                 0x0000524f   Thumb Code    18  ctasksure.o(.text)
    query_ok                                 0x00005261   Thumb Code    14  ctasksure.o(.text)
    test_ok                                  0x0000526f   Thumb Code    14  ctasksure.o(.text)
    reset_ok                                 0x0000527d   Thumb Code   128  ctasksure.o(.text)
    menu_press_ok_complete                   0x000052fd   Thumb Code   146  ctasksure.o(.text)
    factory_ok                               0x0000538f   Thumb Code   278  ctasksure.o(.text)
    GetSpeaker_Flag                          0x000054a5   Thumb Code     6  ctasksure.o(.text)
    CLevel27_Sure                            0x000054ab   Thumb Code    28  ctasksure.o(.text)
    speaker_ok                               0x000054c7   Thumb Code     8  ctasksure.o(.text)
    CLevel1_Sure                             0x000054cf   Thumb Code    62  ctasksure.o(.text)
    get_local_addr                           0x0000550d   Thumb Code    98  ctasksure.o(.text)
    local_addr_value                         0x0000556f   Thumb Code    38  ctasksure.o(.text)
    detect_circuirt                          0x00005595   Thumb Code    16  ctasksure.o(.text)
    set_entry_localaddr_flag                 0x000055a5   Thumb Code     8  ctasksure.o(.text)
    get_entry_localaddr_flag                 0x000055ad   Thumb Code     6  ctasksure.o(.text)
    clr_entry_localaddr_flag                 0x000055b3   Thumb Code     8  ctasksure.o(.text)
    menu_setup_localaddr_ok                  0x000055bb   Thumb Code   146  ctasksure.o(.text)
    menu_setup_compreg_ok                    0x0000564d   Thumb Code    68  ctasksure.o(.text)
    menu_setup_setcomp_ok                    0x00005691   Thumb Code    44  ctasksure.o(.text)
    menu_setup_datetime_ok                   0x000056bd   Thumb Code   128  ctasksure.o(.text)
    setup_Sure                               0x0000573d   Thumb Code    52  ctasksure.o(.text)
    set_enter_flag                           0x00005771   Thumb Code     8  ctasksure.o(.text)
    get_enter_falg                           0x00005779   Thumb Code     6  ctasksure.o(.text)
    clr_enter_flag                           0x0000577f   Thumb Code     8  ctasksure.o(.text)
    query_system_ok                          0x00005787   Thumb Code    44  ctasksure.o(.text)
    query_compstatus_ok                      0x000057b3   Thumb Code   130  ctasksure.o(.text)
    query_historyrecord_ok                   0x00005835   Thumb Code   198  ctasksure.o(.text)
    query_Sure                               0x000058fb   Thumb Code    42  ctasksure.o(.text)
    selftest_ok                              0x00005925   Thumb Code    78  ctasksure.o(.text)
    sigstrength_ok                           0x00005973   Thumb Code    22  ctasksure.o(.text)
    test_Sure                                0x00005989   Thumb Code    32  ctasksure.o(.text)
    SetSpeaker_ON                            0x000059a9   Thumb Code     8  ctasksure.o(.text)
    SetSpeaker_OFF                           0x000059b1   Thumb Code     8  ctasksure.o(.text)
    menu_set_localaddr_ok                    0x000059b9   Thumb Code   282  ctasksure.o(.text)
    menu_comp_noreg                          0x00005ad3   Thumb Code   290  ctasksure.o(.text)
    menu_setup_done                          0x00005bf5   Thumb Code   102  ctasksure.o(.text)
    menu_press_ok_save                       0x00005c5b   Thumb Code   168  ctasksure.o(.text)
    menu_deling                              0x00005d03   Thumb Code   102  ctasksure.o(.text)
    menu_opsing                              0x00005d69   Thumb Code   102  ctasksure.o(.text)
    menu_ops_done                            0x00005dcf   Thumb Code   102  ctasksure.o(.text)
    menu_comp_masked                         0x00005e35   Thumb Code   124  ctasksure.o(.text)
    menu_comp_started                        0x00005eb1   Thumb Code   124  ctasksure.o(.text)
    menu_colon                               0x00005f2d   Thumb Code    16  ctasksure.o(.text)
    menu_compset                             0x00005f3d   Thumb Code   102  ctasksure.o(.text)
    opstype_deleted                          0x00005fa3   Thumb Code    18  ctasksure.o(.text)
    setup_menu_deal                          0x00005fb5   Thumb Code  1098  ctasksure.o(.text)
    query_menu_deal                          0x000063ff   Thumb Code   306  ctasksure.o(.text)
    test_menu_deal                           0x00006531   Thumb Code    44  ctasksure.o(.text)
    speaker_menu_deal                        0x0000655d   Thumb Code     2  ctasksure.o(.text)
    CLevel3_Sure                             0x0000655f   Thumb Code    56  ctasksure.o(.text)
    Level2_Up                                0x00006599   Thumb Code   142  ctaskup.o(.text)
    test_sigStrlength_up                     0x00006627   Thumb Code    82  ctaskup.o(.text)
    test_Up                                  0x00006679   Thumb Code    36  ctaskup.o(.text)
    query_hist_up                            0x0000669d   Thumb Code   242  ctaskup.o(.text)
    query_compstatus_up                      0x0000678f   Thumb Code    26  ctaskup.o(.text)
    query_system_up                          0x000067a9   Thumb Code    64  ctaskup.o(.text)
    query_Up                                 0x000067e9   Thumb Code    44  ctaskup.o(.text)
    setup_datetime_up                        0x00006815   Thumb Code   250  ctaskup.o(.text)
    setup_setcomp_up                         0x0000690f   Thumb Code   102  ctaskup.o(.text)
    setup_compreg_up                         0x00006975   Thumb Code    82  ctaskup.o(.text)
    setup_localaddr_up                       0x000069c7   Thumb Code   518  ctaskup.o(.text)
    setup_Up                                 0x00006bcd   Thumb Code    54  ctaskup.o(.text)
    Level3_Up                                0x00006c03   Thumb Code    44  ctaskup.o(.text)
    show_head_menu                           0x00006c31   Thumb Code    30  runfunction.o(.text)
    gethistory_show_pos                      0x00006c4f   Thumb Code    86  runfunction.o(.text)
    set_history_alarm_pos                    0x00006ca5   Thumb Code     6  runfunction.o(.text)
    set_menu_alarm_info                      0x00006cab   Thumb Code    76  runfunction.o(.text)
    get_menu_alarm_info                      0x00006cf7   Thumb Code     4  runfunction.o(.text)
    set_alarm_newest_pos                     0x00006cfb   Thumb Code     6  runfunction.o(.text)
    get_alarm_newest_pos                     0x00006d01   Thumb Code     6  runfunction.o(.text)
    get_alarmpart                            0x00006d07   Thumb Code    10  runfunction.o(.text)
    add_alarmnums                            0x00006d11   Thumb Code    38  runfunction.o(.text)
    get_record_alarmnum                      0x00006d37   Thumb Code     6  runfunction.o(.text)
    set_record_showalarm                     0x00006d3d   Thumb Code     6  runfunction.o(.text)
    get_record_showalarm                     0x00006d43   Thumb Code     6  runfunction.o(.text)
    sub_record_showalarm                     0x00006d49   Thumb Code    12  runfunction.o(.text)
    add_record_showalarm                     0x00006d55   Thumb Code    12  runfunction.o(.text)
    get_cur_alarmpart                        0x00006d61   Thumb Code    12  runfunction.o(.text)
    get_alarm_newest_nums                    0x00006d6d   Thumb Code    38  runfunction.o(.text)
    clr_alarm_loop_show                      0x00006d93   Thumb Code     8  runfunction.o(.text)
    set_alarm_loop_show                      0x00006d9b   Thumb Code     8  runfunction.o(.text)
    get_alarm_loop_show                      0x00006da3   Thumb Code     6  runfunction.o(.text)
    menu_alarm_fire                          0x00006da9   Thumb Code   322  runfunction.o(.text)
    menu_alarm_fault                         0x00006eeb   Thumb Code    58  runfunction.o(.text)
    have_alarm_backafter30s                  0x00006f25   Thumb Code    62  runfunction.o(.text)
    Systemp_Task                             0x00006f63   Thumb Code    68  runfunction.o(.text)
    DisplayKeyMenu                           0x00006fa7   Thumb Code   722  runfunction.o(.text)
    set_time_sendheart                       0x00007279   Thumb Code     6  runfunction.o(.text)
    add_time_sendheart                       0x0000727f   Thumb Code    12  runfunction.o(.text)
    get_time_sendheart                       0x0000728b   Thumb Code     6  runfunction.o(.text)
    clr_time_sendheart                       0x00007291   Thumb Code     8  runfunction.o(.text)
    SendHeart                                0x00007299   Thumb Code   194  runfunction.o(.text)
    CS0Setup                                 0x0000735b   Thumb Code    42  runfunction.o(.text)
    inqury_state__byuart0                    0x00007385   Thumb Code    94  runfunction.o(.text)
    menu_setup_localaddr_tab                 0x0000743d   Thumb Code   206  tasklist.o(.text)
    menu_comp_reg_tab                        0x0000750b   Thumb Code    56  tasklist.o(.text)
    menu_setup_comp_tab                      0x00007543   Thumb Code    62  tasklist.o(.text)
    back_task_setup_datetime                 0x00007581   Thumb Code    94  tasklist.o(.text)
    back_task_save                           0x000075df   Thumb Code    56  tasklist.o(.text)
    back_task_comp_state                     0x00007617   Thumb Code    52  tasklist.o(.text)
    Back_Task                                0x0000764b   Thumb Code   218  tasklist.o(.text)
    Up_Task                                  0x00007725   Thumb Code    70  tasklist.o(.text)
    Down_Task                                0x0000776b   Thumb Code    78  tasklist.o(.text)
    Sure_Task                                0x000077b9   Thumb Code   142  tasklist.o(.text)
    Return_Task                              0x00007847   Thumb Code   152  tasklist.o(.text)
    Silence_Task                             0x000078df   Thumb Code    14  tasklist.o(.text)
    hardware_init                            0x000078f1   Thumb Code   122  crunctrl.o(.text)
    ctrl_init                                0x0000796b   Thumb Code    40  crunctrl.o(.text)
    Init_CRunCtrl                            0x00007993   Thumb Code    12  crunctrl.o(.text)
    Reset_CRunCtrl                           0x0000799f   Thumb Code    16  crunctrl.o(.text)
    deal_lcd                                 0x000079af   Thumb Code    20  crunctrl.o(.text)
    deal_speaker                             0x000079c3   Thumb Code    20  crunctrl.o(.text)
    RunLed_CRunCtrl                          0x000079d7   Thumb Code    68  crunctrl.o(.text)
    deal_all_led                             0x00007a1b   Thumb Code    14  crunctrl.o(.text)
    pwm1_test_start_stop                     0x00007a29   Thumb Code    24  crunctrl.o(.text)
    do_CRunCtrl                              0x00007a41   Thumb Code   110  crunctrl.o(.text)
    zijian_speaker                           0x00007aaf   Thumb Code     2  crunctrl.o(.text)
    InitC_CSysRunFlag                        0x00007abd   Thumb Code     8  csysrunflag.o(.text)
    ClrReset_CSysRunFlag                     0x00007ac5   Thumb Code    14  csysrunflag.o(.text)
    SetReset_CSysRunFlag                     0x00007ad3   Thumb Code    16  csysrunflag.o(.text)
    GetReset_CSysRunFlag                     0x00007ae3   Thumb Code    10  csysrunflag.o(.text)
    ClrAlarm_CSysRunFlag                     0x00007aed   Thumb Code    14  csysrunflag.o(.text)
    SetAlarm_CSysRunFlag                     0x00007afb   Thumb Code    18  csysrunflag.o(.text)
    GetAlarm_CSysRunFlag                     0x00007b0d   Thumb Code    10  csysrunflag.o(.text)
    Clr50ms_CSysRunFlag                      0x00007b17   Thumb Code    14  csysrunflag.o(.text)
    Set50ms_CSysRunFlag                      0x00007b25   Thumb Code    16  csysrunflag.o(.text)
    Get50ms_CSysRunFlag                      0x00007b35   Thumb Code    10  csysrunflag.o(.text)
    Clr20ms_CSysRunFlag                      0x00007b3f   Thumb Code    14  csysrunflag.o(.text)
    Set20ms_CSysRunFlag                      0x00007b4d   Thumb Code    16  csysrunflag.o(.text)
    Get20ms_CSysRunFlag                      0x00007b5d   Thumb Code    10  csysrunflag.o(.text)
    Clr1s_CSysRunFlag                        0x00007b67   Thumb Code    14  csysrunflag.o(.text)
    Set1s_CSysRunFlag                        0x00007b75   Thumb Code    16  csysrunflag.o(.text)
    Get1s_CSysRunFlag                        0x00007b85   Thumb Code    10  csysrunflag.o(.text)
    Clr5s_CSysRunFlag                        0x00007b8f   Thumb Code    14  csysrunflag.o(.text)
    Set5s_CSysRunFlag                        0x00007b9d   Thumb Code    16  csysrunflag.o(.text)
    Get5s_CSysRunFlag                        0x00007bad   Thumb Code    10  csysrunflag.o(.text)
    ClrDisHis_CSysRunFlag                    0x00007bb7   Thumb Code    14  csysrunflag.o(.text)
    SetDisHis_CSysRunFlag                    0x00007bc5   Thumb Code    18  csysrunflag.o(.text)
    GetDisHis_CSysRunFlag                    0x00007bd7   Thumb Code    10  csysrunflag.o(.text)
    Clr1m_CSysRunFlag                        0x00007be1   Thumb Code    14  csysrunflag.o(.text)
    Set1m_CSysRunFlag                        0x00007bef   Thumb Code    16  csysrunflag.o(.text)
    Get1m_CSysRunFlag                        0x00007bff   Thumb Code    10  csysrunflag.o(.text)
    Clr100ms_CSysRunFlag                     0x00007c09   Thumb Code    14  csysrunflag.o(.text)
    Set100ms_CSysRunFlag                     0x00007c17   Thumb Code    16  csysrunflag.o(.text)
    Get100ms_CSysRunFlag                     0x00007c27   Thumb Code    10  csysrunflag.o(.text)
    Clr40ms_CSysRunFlag                      0x00007c31   Thumb Code    14  csysrunflag.o(.text)
    Set40ms_CSysRunFlag                      0x00007c3f   Thumb Code    16  csysrunflag.o(.text)
    Get40ms_CSysRunFlag                      0x00007c4f   Thumb Code    10  csysrunflag.o(.text)
    Init_CLpAnsCtrl                          0x00007c5d   Thumb Code     2  clpansctrl.o(.text)
    GetData_CLpAnsCtrl                       0x00007c5f   Thumb Code    46  clpansctrl.o(.text)
    SetData_CLpAnsCtrl                       0x00007c8d   Thumb Code    66  clpansctrl.o(.text)
    OutData_CLpAnsCtrl                       0x00007ccf   Thumb Code    40  clpansctrl.o(.text)
    OutState_CLpAnsCtrl                      0x00007cf7   Thumb Code    28  clpansctrl.o(.text)
    Init_CLpCkCtrl                           0x00007d25   Thumb Code     8  clpckctrl.o(.text)
    SetExtint_CLpCkCtrl                      0x00007d2d   Thumb Code    14  clpckctrl.o(.text)
    GetExtint_CLpCkCtrl                      0x00007d3b   Thumb Code    10  clpckctrl.o(.text)
    ClrExtint_CLpCkCtrl                      0x00007d45   Thumb Code    14  clpckctrl.o(.text)
    SetPer_CLpCkCtrl                         0x00007d53   Thumb Code    14  clpckctrl.o(.text)
    GetPer_CLpCkCtrl                         0x00007d61   Thumb Code    10  clpckctrl.o(.text)
    ClrPer_CLpCkCtrl                         0x00007d6b   Thumb Code    14  clpckctrl.o(.text)
    ClrReset_CLpCkCtrl                       0x00007d79   Thumb Code    14  clpckctrl.o(.text)
    SetReset_CLpCkCtrl                       0x00007d87   Thumb Code    18  clpckctrl.o(.text)
    GetReset_CLpCkCtrl                       0x00007d99   Thumb Code    10  clpckctrl.o(.text)
    ClrAlarm_CLpCkCtrl                       0x00007da3   Thumb Code    14  clpckctrl.o(.text)
    SetAlarm_CLpCkCtrl                       0x00007db1   Thumb Code    18  clpckctrl.o(.text)
    GetAlarm_CLpCkCtrl                       0x00007dc3   Thumb Code    10  clpckctrl.o(.text)
    Clr50ms_CLpCkCtrl                        0x00007dcd   Thumb Code    14  clpckctrl.o(.text)
    Set50ms_CLpCkCtrl                        0x00007ddb   Thumb Code    16  clpckctrl.o(.text)
    Get50ms_CLpCkCtrl                        0x00007deb   Thumb Code    10  clpckctrl.o(.text)
    Clr10ms_CLpCkCtrl                        0x00007df5   Thumb Code    14  clpckctrl.o(.text)
    Set10ms_CLpCkCtrl                        0x00007e03   Thumb Code    16  clpckctrl.o(.text)
    Get10ms_CLpCkCtrl                        0x00007e13   Thumb Code    10  clpckctrl.o(.text)
    Clr1s_CLpCkCtrl                          0x00007e1d   Thumb Code    14  clpckctrl.o(.text)
    Set1s_CLpCkCtrl                          0x00007e2b   Thumb Code    16  clpckctrl.o(.text)
    Get1s_CLpCkCtrl                          0x00007e3b   Thumb Code    10  clpckctrl.o(.text)
    Clr5s_CLpCkCtrl                          0x00007e45   Thumb Code    14  clpckctrl.o(.text)
    Set5s_CLpCkCtrl                          0x00007e53   Thumb Code    18  clpckctrl.o(.text)
    Get5s_CLpCkCtrl                          0x00007e65   Thumb Code    10  clpckctrl.o(.text)
    Init_CLpScanCtrl                         0x00007e75   Thumb Code     8  clpscanctrl.o(.text)
    NewNode_CLpScanCtrl                      0x00007e7d   Thumb Code    14  clpscanctrl.o(.text)
    SetSys_CLpScanCtrl                       0x00007e8b   Thumb Code    16  clpscanctrl.o(.text)
    GetSys_CLpScanCtrl                       0x00007e9b   Thumb Code    10  clpscanctrl.o(.text)
    ClrSys_CLpScanCtrl                       0x00007ea5   Thumb Code    14  clpscanctrl.o(.text)
    SetAddr_CLpScanCtrl                      0x00007eb3   Thumb Code    14  clpscanctrl.o(.text)
    GetAddr_CLpScanCtrl                      0x00007ec1   Thumb Code    10  clpscanctrl.o(.text)
    ClrAddr_CLpScanCtrl                      0x00007ecb   Thumb Code    14  clpscanctrl.o(.text)
    IncAddr_CLpScanCtrl                      0x00007ed9   Thumb Code    42  clpscanctrl.o(.text)
    SetComm_CLpScanCtrl                      0x00007f03   Thumb Code    14  clpscanctrl.o(.text)
    GetComm_CLpScanCtrl                      0x00007f11   Thumb Code    10  clpscanctrl.o(.text)
    ClrComm_CLpScanCtrl                      0x00007f1b   Thumb Code    14  clpscanctrl.o(.text)
    SetState_CLpScanCtrl                     0x00007f29   Thumb Code    18  clpscanctrl.o(.text)
    GetState_CLpScanCtrl                     0x00007f3b   Thumb Code    10  clpscanctrl.o(.text)
    ClrState_CLpScanCtrl                     0x00007f45   Thumb Code    14  clpscanctrl.o(.text)
    SetAnsFlag_CLpScanCtrl                   0x00007f53   Thumb Code    18  clpscanctrl.o(.text)
    GetAnsFlag_CLpScanCtrl                   0x00007f65   Thumb Code    10  clpscanctrl.o(.text)
    ClrAnsFlag_CLpScanCtrl                   0x00007f6f   Thumb Code    14  clpscanctrl.o(.text)
    SetAnsStar_CLpScanCtrl                   0x00007f7d   Thumb Code    18  clpscanctrl.o(.text)
    GetAnsStar_CLpScanCtrl                   0x00007f8f   Thumb Code    10  clpscanctrl.o(.text)
    ClrAnsStar_CLpScanCtrl                   0x00007f99   Thumb Code    14  clpscanctrl.o(.text)
    SetAnsStep_CLpScanCtrl                   0x00007fa7   Thumb Code    50  clpscanctrl.o(.text)
    GetAnsStep_CLpScanCtrl                   0x00007fd9   Thumb Code    10  clpscanctrl.o(.text)
    ClrAnsStep_CLpScanCtrl                   0x00007fe3   Thumb Code    14  clpscanctrl.o(.text)
    SetAnsTId_CLpScanCtrl                    0x00007ff1   Thumb Code    18  clpscanctrl.o(.text)
    GetAnsTId_CLpScanCtrl                    0x00008003   Thumb Code    10  clpscanctrl.o(.text)
    ClrAnsTId_CLpScanCtrl                    0x0000800d   Thumb Code    14  clpscanctrl.o(.text)
    DecAnsTId_CLpScanCtrl                    0x0000801b   Thumb Code    34  clpscanctrl.o(.text)
    SetReset_CLpScanCtrl                     0x0000803d   Thumb Code    18  clpscanctrl.o(.text)
    GetReset_CLpScanCtrl                     0x0000804f   Thumb Code    10  clpscanctrl.o(.text)
    ClrReset_CLpScanCtrl                     0x00008059   Thumb Code    14  clpscanctrl.o(.text)
    Init_CTimeCtrl                           0x0000806d   Thumb Code    20  ctimectrl.o(.text)
    IncT0Count_CTimeCtrl                     0x00008081   Thumb Code    54  ctimectrl.o(.text)
    SaveComm_CTimeCtrl                       0x000080b7   Thumb Code   122  ctimectrl.o(.text)
    SetCommT0_CTimeCtrl                      0x00008131   Thumb Code   108  ctimectrl.o(.text)
    AnsCommT0_CTimeCtrl                      0x0000819d   Thumb Code   172  ctimectrl.o(.text)
    T0Int_CTimeCtrl                          0x00008249   Thumb Code    94  ctimectrl.o(.text)
    set_speark_ss_time                       0x000082a7   Thumb Code    78  ctimectrl.o(.text)
    T1Int_CTimeCtrl                          0x000082f5   Thumb Code   206  ctimectrl.o(.text)
    SetMax_CNodeInfo                         0x000083d9   Thumb Code    18  cnodeinfo.o(.text)
    ClrMax_CNodeInfo                         0x000083eb   Thumb Code     8  cnodeinfo.o(.text)
    Init_CNodeInfo                           0x000083f3   Thumb Code    24  cnodeinfo.o(.text)
    SetState_CNodeInfo                       0x0000840b   Thumb Code    18  cnodeinfo.o(.text)
    GetState_CNodeInfo                       0x0000841d   Thumb Code    14  cnodeinfo.o(.text)
    ClrState_CNodeInfo                       0x0000842b   Thumb Code    18  cnodeinfo.o(.text)
    ClrReset_CNodeInfo                       0x0000843d   Thumb Code    18  cnodeinfo.o(.text)
    SetReset_CNodeInfo                       0x0000844f   Thumb Code    20  cnodeinfo.o(.text)
    GetReset_CNodeInfo                       0x00008463   Thumb Code    14  cnodeinfo.o(.text)
    ClrAlarm_CNodeInfo                       0x00008471   Thumb Code    18  cnodeinfo.o(.text)
    ClrReg_CNodeInfo                         0x00008483   Thumb Code    18  cnodeinfo.o(.text)
    SetAlarm_CNodeInfo                       0x00008495   Thumb Code    50  cnodeinfo.o(.text)
    GetAlarm_CNodeInfo                       0x000084c7   Thumb Code    14  cnodeinfo.o(.text)
    SetReg_CNodeInfo                         0x000084d5   Thumb Code    50  cnodeinfo.o(.text)
    GetReg_CNodeInfo                         0x00008507   Thumb Code    14  cnodeinfo.o(.text)
    GetMax_CNodeInfo                         0x00008515   Thumb Code     6  cnodeinfo.o(.text)
    ClrCkCyc_CNodeInfo                       0x0000851b   Thumb Code    18  cnodeinfo.o(.text)
    SetCkCyc_CNodeInfo                       0x0000852d   Thumb Code    62  cnodeinfo.o(.text)
    SetComm_CNodeInfo                        0x0000856b   Thumb Code    56  cnodeinfo.o(.text)
    GetComm_CNodeInfo                        0x000085a3   Thumb Code    14  cnodeinfo.o(.text)
    ClrComm_CNodeInfo                        0x000085b1   Thumb Code    18  cnodeinfo.o(.text)
    GetCkCyc_CNodeInfo                       0x000085c3   Thumb Code    14  cnodeinfo.o(.text)
    judge_store_new                          0x000085d9   Thumb Code    50  store_addr.o(.text)
    get_storepos                             0x0000860b   Thumb Code    30  store_addr.o(.text)
    get_comp_ciraddr_zp                      0x00008629   Thumb Code    50  store_addr.o(.text)
    inqury_ciraddr                           0x0000865b   Thumb Code    48  store_addr.o(.text)
    clr_store_comp_info                      0x0000868b   Thumb Code    34  store_addr.o(.text)
    init_store                               0x000086ad   Thumb Code   298  store_addr.o(.text)
    Alarm_Menu                               0x000088c1   Thumb Code  1734  alarmenu.o(.text)
    menu_batlow                              0x00008f89   Thumb Code    56  breakdown.o(.text)
    Breakdown                                0x00008fc1   Thumb Code  1650  breakdown.o(.text)
    Annotate_Menu                            0x00009635   Thumb Code  1016  cannotate.o(.text)
    menu_comp_notreged                       0x00009a2d   Thumb Code   132  ccompinten.o(.text)
    menu_comp_sigstrength                    0x00009ab1   Thumb Code   156  ccompinten.o(.text)
    CompInten_Menu                           0x00009b4d   Thumb Code   892  ccompinten.o(.text)
    CSetIntenFlag                            0x00009ec9   Thumb Code     6  ccompinten.o(.text)
    CGetIntenFlag                            0x00009ecf   Thumb Code     6  ccompinten.o(.text)
    menu_reging                              0x00009ee9   Thumb Code   108  ccompreg.o(.text)
    menu_invalid_comp                        0x00009f55   Thumb Code   108  ccompreg.o(.text)
    menu_compaddr                            0x00009fc1   Thumb Code   114  ccompreg.o(.text)
    menu_compstatus                          0x0000a033   Thumb Code     2  ccompreg.o(.text)
    menu_comptype                            0x0000a035   Thumb Code    74  ccompreg.o(.text)
    menu_overciraddr                         0x0000a07f   Thumb Code   124  ccompreg.o(.text)
    menu_compreged                           0x0000a0fb   Thumb Code   124  ccompreg.o(.text)
    menu_devreged                            0x0000a177   Thumb Code   124  ccompreg.o(.text)
    menu_overcompnums                        0x0000a1f3   Thumb Code   124  ccompreg.o(.text)
    menu_regedsucc                           0x0000a26f   Thumb Code   206  ccompreg.o(.text)
    menu_compreg                             0x0000a33d   Thumb Code   196  ccompreg.o(.text)
    menu_compreg_tips                        0x0000a401   Thumb Code   180  ccompreg.o(.text)
    CompReg_menu                             0x0000a4b5   Thumb Code   352  ccompreg.o(.text)
    GNSelectBlack                            0x0000a661   Thumb Code   186  ccompset.o(.text)
    GNSelect                                 0x0000a71b   Thumb Code   186  ccompset.o(.text)
    CompSet_Menu                             0x0000a7d5   Thumb Code   306  ccompset.o(.text)
    menu_devtype                             0x0000a935   Thumb Code    54  ccompstat.o(.text)
    menu_mask_start                          0x0000a96b   Thumb Code    58  ccompstat.o(.text)
    menu_mask_stop                           0x0000a9a5   Thumb Code    58  ccompstat.o(.text)
    CompStat_Menu                            0x0000a9df   Thumb Code   978  ccompstat.o(.text)
    DateMod_Menu                             0x0000adb1   Thumb Code  2616  cdatemod.o(.text)
    Check_Menu                               0x0000b7ed   Thumb Code   438  checkmenu.o(.text)
    menu_nohistory                           0x0000b9c1   Thumb Code   138  chistorylist.o(.text)
    menu_history_over                        0x0000ba4b   Thumb Code   114  chistorylist.o(.text)
    menu_ciraddr                             0x0000babd   Thumb Code   184  chistorylist.o(.text)
    menu_status                              0x0000bb75   Thumb Code    68  chistorylist.o(.text)
    menu_start                               0x0000bbb9   Thumb Code    56  chistorylist.o(.text)
    menu_stop                                0x0000bbf1   Thumb Code    56  chistorylist.o(.text)
    menu_del                                 0x0000bc29   Thumb Code    56  chistorylist.o(.text)
    menu_normal                              0x0000bc61   Thumb Code    56  chistorylist.o(.text)
    menu_lowvolatage                         0x0000bc99   Thumb Code   100  chistorylist.o(.text)
    menu_fault                               0x0000bcfd   Thumb Code    56  chistorylist.o(.text)
    menu_fire                                0x0000bd35   Thumb Code    56  chistorylist.o(.text)
    History_Menu                             0x0000bd6d   Thumb Code  1324  chistorylist.o(.text)
    HZ_SHOW                                  0x0000c299   Thumb Code    44  clocalset.o(.text)
    menu_haved_saved                         0x0000c2c5   Thumb Code   100  clocalset.o(.text)
    menu_saving                              0x0000c329   Thumb Code    92  clocalset.o(.text)
    menu_savetips                            0x0000c385   Thumb Code   158  clocalset.o(.text)
    menu_localaddr_nochange                  0x0000c423   Thumb Code     2  clocalset.o(.text)
    display_or_reverse                       0x0000c425   Thumb Code    48  clocalset.o(.text)
    Local_Menu                               0x0000c455   Thumb Code   546  clocalset.o(.text)
    menu_wirelessmod_fault                   0x0000c6a9   Thumb Code   156  cmodelfault.o(.text)
    menu_system_query                        0x0000c755   Thumb Code   114  csyscheck.o(.text)
    menu_system_query_compnums               0x0000c7c7   Thumb Code   218  csyscheck.o(.text)
    SysCheck_Menu                            0x0000c8a1   Thumb Code    24  csyscheck.o(.text)
    Menu_complete                            0x0000c8d5   Thumb Code   108  csysreset.o(.text)
    TestSelf_Menu                            0x0000c94d   Thumb Code   108  ctestself.o(.text)
    set_menu_setup                           0x0000c9c5   Thumb Code    76  mainmenu.o(.text)
    set_menu_query                           0x0000ca11   Thumb Code    76  mainmenu.o(.text)
    set_menu_test                            0x0000ca5d   Thumb Code    76  mainmenu.o(.text)
    set_menu_reset                           0x0000caa9   Thumb Code    76  mainmenu.o(.text)
    set_menu_backtodefault                   0x0000caf5   Thumb Code   172  mainmenu.o(.text)
    set_menu_speaker_setup                   0x0000cba1   Thumb Code   152  mainmenu.o(.text)
    Main_Menu                                0x0000cc39   Thumb Code   174  mainmenu.o(.text)
    menu_press_return_toreturn               0x0000cce7   Thumb Code   180  mainmenu.o(.text)
    menu_complete                            0x0000cd9b   Thumb Code    98  mainmenu.o(.text)
    menu_Speaker_Open_Close                  0x0000cdfd   Thumb Code   156  mainmenu.o(.text)
    menu_waiting                             0x0000ce99   Thumb Code   138  mainmenu.o(.text)
    set_menu_local_machine                   0x0000cf3d   Thumb Code   124  setmenu.o(.text)
    set_menu_component_reg                   0x0000cfb9   Thumb Code   124  setmenu.o(.text)
    set_menu_component_setup                 0x0000d035   Thumb Code   124  setmenu.o(.text)
    set_menu_datetime_setup                  0x0000d0b1   Thumb Code   136  setmenu.o(.text)
    set_menu_note                            0x0000d139   Thumb Code    76  setmenu.o(.text)
    set_menu_save_all                        0x0000d185   Thumb Code   124  setmenu.o(.text)
    Set_Menu                                 0x0000d201   Thumb Code    78  setmenu.o(.text)
    CSaveInfo                                0x0000d24f   Thumb Code    66  setmenu.o(.text)
    Set_Menu1                                0x0000d291   Thumb Code    68  setmenu.o(.text)
    show_date_time                           0x0000d2e1   Thumb Code   444  startmenu.o(.text)
    menu_head_title                          0x0000d49d   Thumb Code   204  startmenu.o(.text)
    Start_Menu                               0x0000d569   Thumb Code    20  startmenu.o(.text)
    Test_Menu                                0x0000d591   Thumb Code   300  testmenu.o(.text)
    Test_Menu1                               0x0000d6bd   Thumb Code   160  testmenu.o(.text)
    SetHistFlag                              0x0000d771   Thumb Code     6  cflashparam.o(.text)
    GetHistFlag                              0x0000d777   Thumb Code     6  cflashparam.o(.text)
    get_hist_attr                            0x0000d7f9   Thumb Code    14  cflashparam.o(.text)
    gethistory_isfirealarm                   0x0000d807   Thumb Code    22  cflashparam.o(.text)
    gethistory_isbatlow                      0x0000d81d   Thumb Code    22  cflashparam.o(.text)
    gethistory_isfault                       0x0000d833   Thumb Code    22  cflashparam.o(.text)
    AddPageConter                            0x0000d849   Thumb Code    12  cflashparam.o(.text)
    SetPageConter                            0x0000d855   Thumb Code     6  cflashparam.o(.text)
    GetPageConter                            0x0000d85b   Thumb Code     6  cflashparam.o(.text)
    AddHistConter                            0x0000d861   Thumb Code    12  cflashparam.o(.text)
    GetHistConter                            0x0000d86d   Thumb Code     6  cflashparam.o(.text)
    SetHistConter                            0x0000d873   Thumb Code     6  cflashparam.o(.text)
    setHistFullFlag                          0x0000d879   Thumb Code     6  cflashparam.o(.text)
    getHistFullFlag                          0x0000d87f   Thumb Code     6  cflashparam.o(.text)
    getHistFull                              0x0000d885   Thumb Code    16  cflashparam.o(.text)
    init_basic_info                          0x0000dbe1   Thumb Code    12  cflashparam.o(.text)
    set_basic_info                           0x0000dbed   Thumb Code    22  cflashparam.o(.text)
    get_basic_info                           0x0000dc03   Thumb Code    18  cflashparam.o(.text)
    save_basic_info                          0x0000dc15   Thumb Code    24  cflashparam.o(.text)
    set_basic_nums                           0x0000dc2d   Thumb Code    18  cflashparam.o(.text)
    get_comp_partnumber                      0x0000dc53   Thumb Code    14  cflashparam.o(.text)
    get_basic_nums                           0x0000dc61   Thumb Code    30  cflashparam.o(.text)
    add_basic_nums                           0x0000dc7f   Thumb Code    26  cflashparam.o(.text)
    sub_basic_nums                           0x0000dc99   Thumb Code    24  cflashparam.o(.text)
    set_basic_localaddr                      0x0000dcb1   Thumb Code    14  cflashparam.o(.text)
    set_basic_zones                          0x0000dcbf   Thumb Code    14  cflashparam.o(.text)
    get_basic_localaddr                      0x0000dccd   Thumb Code    24  cflashparam.o(.text)
    get_basic_zones                          0x0000dce5   Thumb Code    10  cflashparam.o(.text)
    init_comp_info                           0x0000dcef   Thumb Code    12  cflashparam.o(.text)
    save_comp_info                           0x0000dcfb   Thumb Code    12  cflashparam.o(.text)
    set_comp_inzone                          0x0000dd1f   Thumb Code    18  cflashparam.o(.text)
    set_comp_partnumber                      0x0000dd31   Thumb Code    18  cflashparam.o(.text)
    set_comp_ciraddr                         0x0000dd43   Thumb Code    18  cflashparam.o(.text)
    set_comp_psn0                            0x0000dd55   Thumb Code    18  cflashparam.o(.text)
    set_comp_psn1                            0x0000dd67   Thumb Code    18  cflashparam.o(.text)
    set_comp_psn2                            0x0000dd79   Thumb Code    18  cflashparam.o(.text)
    set_comp_psn3                            0x0000dd8b   Thumb Code    18  cflashparam.o(.text)
    set_comp_devtype                         0x0000dd9d   Thumb Code    18  cflashparam.o(.text)
    set_comp_all                             0x0000ddaf   Thumb Code    74  cflashparam.o(.text)
    clr_comp_all                             0x0000ddf9   Thumb Code    70  cflashparam.o(.text)
    get_comp_ciraddr                         0x0000de3f   Thumb Code    14  cflashparam.o(.text)
    clr_comp_loop_all                        0x0000de4d   Thumb Code    38  cflashparam.o(.text)
    set_comp_all_and_save                    0x0000de73   Thumb Code    20  cflashparam.o(.text)
    get_comp_inzone                          0x0000de87   Thumb Code    14  cflashparam.o(.text)
    judge_same_ciraddr                       0x0000de95   Thumb Code    40  cflashparam.o(.text)
    get_comp_psn0                            0x0000debd   Thumb Code    14  cflashparam.o(.text)
    get_comp_psn1                            0x0000decb   Thumb Code    14  cflashparam.o(.text)
    get_comp_psn2                            0x0000ded9   Thumb Code    14  cflashparam.o(.text)
    get_comp_psn3                            0x0000dee7   Thumb Code    14  cflashparam.o(.text)
    get_comp_devtype                         0x0000def5   Thumb Code    14  cflashparam.o(.text)
    get_comp_all                             0x0000df03   Thumb Code    72  cflashparam.o(.text)
    init_mask_info                           0x0000df4b   Thumb Code    12  cflashparam.o(.text)
    save_mask_info                           0x0000df57   Thumb Code    12  cflashparam.o(.text)
    set_mask_info                            0x0000df63   Thumb Code    22  cflashparam.o(.text)
    get_mask_info                            0x0000df79   Thumb Code    18  cflashparam.o(.text)
    init_alarm_info                          0x0000df8b   Thumb Code    12  cflashparam.o(.text)
    save_alarm_info                          0x0000df97   Thumb Code    12  cflashparam.o(.text)
    get_alarm_attr                           0x0000dfe1   Thumb Code    14  cflashparam.o(.text)
    get_alarm_alarmed                        0x0000dfef   Thumb Code    14  cflashparam.o(.text)
    judge_alarm_firealarmed                  0x0000dffd   Thumb Code    30  cflashparam.o(.text)
    judge_alarm_faultalarmed                 0x0000e01b   Thumb Code    30  cflashparam.o(.text)
    get_alarm_firstalarm                     0x0000e039   Thumb Code    18  cflashparam.o(.text)
    set_alarm_inzone                         0x0000e04b   Thumb Code    18  cflashparam.o(.text)
    set_alarm_part                           0x0000e05d   Thumb Code    18  cflashparam.o(.text)
    set_alarm_ciraddr                        0x0000e06f   Thumb Code    18  cflashparam.o(.text)
    set_alarm_alarmsum                       0x0000e081   Thumb Code    18  cflashparam.o(.text)
    set_alarm_type                           0x0000e093   Thumb Code    18  cflashparam.o(.text)
    set_alarm_alarmed                        0x0000e0a5   Thumb Code    18  cflashparam.o(.text)
    set_alarm_firstalarm                     0x0000e0b7   Thumb Code    18  cflashparam.o(.text)
    set_alarm_allinfo                        0x0000e0c9   Thumb Code   188  cflashparam.o(.text)
    get_alarm_ciraddr                        0x0000e185   Thumb Code    14  cflashparam.o(.text)
    clr_firealarm                            0x0000e193   Thumb Code    44  cflashparam.o(.text)
    clr_alarm_allinfo                        0x0000e1bf   Thumb Code    16  cflashparam.o(.text)
    set_alarm_allinfo_andsave                0x0000e1cf   Thumb Code    20  cflashparam.o(.text)
    get_alarm_part                           0x0000e1e3   Thumb Code    14  cflashparam.o(.text)
    get_alarm_type                           0x0000e1f1   Thumb Code    14  cflashparam.o(.text)
    get_alarm_allinfo                        0x0000e1ff   Thumb Code   190  cflashparam.o(.text)
    set_alarm_first                          0x0000e2bd   Thumb Code    22  cflashparam.o(.text)
    get_alarm_first                          0x0000e2d3   Thumb Code    14  cflashparam.o(.text)
    get_alarm_firstflag                      0x0000e2e1   Thumb Code    10  cflashparam.o(.text)
    get_alarm_first_part                     0x0000e2eb   Thumb Code    12  cflashparam.o(.text)
    get_firealarm_nums                       0x0000e2f7   Thumb Code    32  cflashparam.o(.text)
    get_alarm_item_bypart                    0x0000e317   Thumb Code    36  cflashparam.o(.text)
    get_faultalarm_nums                      0x0000e33b   Thumb Code    32  cflashparam.o(.text)
    judge_alarm_first                        0x0000e35b   Thumb Code    16  cflashparam.o(.text)
    init_node_info                           0x0000e36b   Thumb Code    12  cflashparam.o(.text)
    save_node_info                           0x0000e377   Thumb Code    12  cflashparam.o(.text)
    set_node_info                            0x0000e383   Thumb Code    24  cflashparam.o(.text)
    set_node_frame1                          0x0000e39b   Thumb Code    18  cflashparam.o(.text)
    set_node_frame2                          0x0000e3ad   Thumb Code    18  cflashparam.o(.text)
    set_node_frame3                          0x0000e3bf   Thumb Code    18  cflashparam.o(.text)
    set_node_cmd1                            0x0000e3d1   Thumb Code    18  cflashparam.o(.text)
    set_node_cmd_rw                          0x0000e3e3   Thumb Code    18  cflashparam.o(.text)
    set_node_devtype                         0x0000e3f5   Thumb Code    18  cflashparam.o(.text)
    set_node_targetaddr                      0x0000e407   Thumb Code    18  cflashparam.o(.text)
    set_node_controllernum                   0x0000e419   Thumb Code    56  cflashparam.o(.text)
    set_node_datalen                         0x0000e451   Thumb Code    18  cflashparam.o(.text)
    set_node_loop                            0x0000e463   Thumb Code    18  cflashparam.o(.text)
    set_node_addr                            0x0000e475   Thumb Code    18  cflashparam.o(.text)
    set_node_hz                              0x0000e487   Thumb Code    32  cflashparam.o(.text)
    set_node_cs                              0x0000e4a7   Thumb Code    32  cflashparam.o(.text)
    set_node_all_info                        0x0000e4c7   Thumb Code   116  cflashparam.o(.text)
    get_node_info                            0x0000e53b   Thumb Code    20  cflashparam.o(.text)
    get_node_row                             0x0000e54f   Thumb Code    42  cflashparam.o(.text)
    save_nodenums_info                       0x0000e579   Thumb Code    12  cflashparam.o(.text)
    get_nodenums                             0x0000e585   Thumb Code    16  cflashparam.o(.text)
    set_nodenums                             0x0000e595   Thumb Code    20  cflashparam.o(.text)
    save_node_and_nodenums                   0x0000e5a9   Thumb Code    26  cflashparam.o(.text)
    init_nodenums_info                       0x0000e5c3   Thumb Code    26  cflashparam.o(.text)
    add_nodenums                             0x0000e5dd   Thumb Code    18  cflashparam.o(.text)
    init_hist_info                           0x0000e5ef   Thumb Code    12  cflashparam.o(.text)
    save_hist_info                           0x0000e5fb   Thumb Code    26  cflashparam.o(.text)
    set_hist_info                            0x0000e615   Thumb Code    30  cflashparam.o(.text)
    clr_hist_info                            0x0000e633   Thumb Code    38  cflashparam.o(.text)
    get_hist_order                           0x0000e659   Thumb Code    14  cflashparam.o(.text)
    get_hist_inzone                          0x0000e667   Thumb Code    14  cflashparam.o(.text)
    get_hist_part                            0x0000e675   Thumb Code    14  cflashparam.o(.text)
    get_hist_circleaddr                      0x0000e683   Thumb Code    14  cflashparam.o(.text)
    get_hist_vAnnRow                         0x0000e691   Thumb Code    14  cflashparam.o(.text)
    get_hist_opstype                         0x0000e69f   Thumb Code    14  cflashparam.o(.text)
    get_hist_devtype                         0x0000e6ad   Thumb Code    14  cflashparam.o(.text)
    get_hist_lastnum                         0x0000e6bb   Thumb Code    14  cflashparam.o(.text)
    get_hist_datetime                        0x0000e6c9   Thumb Code   100  cflashparam.o(.text)
    get_hist_allinfo                         0x0000e72d   Thumb Code    90  cflashparam.o(.text)
    set_hist_allinfo                         0x0000e787   Thumb Code   202  cflashparam.o(.text)
    judge_histnums_full                      0x0000e879   Thumb Code    20  cflashparam.o(.text)
    save_histnums_info                       0x0000e88d   Thumb Code    88  cflashparam.o(.text)
    save_hist_all                            0x0000e8e5   Thumb Code    12  cflashparam.o(.text)
    set_histnum_full                         0x0000e8f1   Thumb Code    12  cflashparam.o(.text)
    init_histnums_info                       0x0000e8fd   Thumb Code   126  cflashparam.o(.text)
    init_hist_and_histnums                   0x0000e97b   Thumb Code    12  cflashparam.o(.text)
    init_histsufix_info                      0x0000e987   Thumb Code    12  cflashparam.o(.text)
    init_flash_all                           0x0000e993   Thumb Code    36  cflashparam.o(.text)
    CheckDepComp                             0x0000e9b7   Thumb Code    56  cflashparam.o(.text)
    GetNum                                   0x0000e9ef   Thumb Code    82  cflashparam.o(.text)
    CAddCirCounter                           0x0000ea41   Thumb Code    12  cflashparam.o(.text)
    CSetCirCounter                           0x0000ea4d   Thumb Code     6  cflashparam.o(.text)
    CGetCirCounter                           0x0000ea53   Thumb Code     6  cflashparam.o(.text)
    GetRow                                   0x0000ea59   Thumb Code    58  cflashparam.o(.text)
    JudgeAlarmType                           0x0000ea93   Thumb Code    36  cflashparam.o(.text)
    JudgeCompAlarmType                       0x0000eab7   Thumb Code    72  cflashparam.o(.text)
    SetDatatoFlash                           0x0000eaff   Thumb Code    18  cflashparam.o(.text)
    GetDatatoFlash                           0x0000eb11   Thumb Code    18  cflashparam.o(.text)
    GetDatatoFlashType                       0x0000eb23   Thumb Code    18  cflashparam.o(.text)
    GetDatatoFlashAlarmType                  0x0000eb35   Thumb Code    18  cflashparam.o(.text)
    SetFlashData                             0x0000eb47   Thumb Code     6  cflashparam.o(.text)
    SetDepCompSum                            0x0000eb4d   Thumb Code     6  cflashparam.o(.text)
    GetDepCompSum                            0x0000eb53   Thumb Code     8  cflashparam.o(.text)
    ReadFlashPsn                             0x0000eb5b   Thumb Code    12  cflashparam.o(.text)
    SetCom0Ann                               0x0000eb67   Thumb Code    12  cflashparam.o(.text)
    SetBaseAddr                              0x0000eb91   Thumb Code     6  cgrapparam.o(.text)
    set_BaseAddr_default                     0x0000eb97   Thumb Code    28  cgrapparam.o(.text)
    AddBaseAddr                              0x0000ebb3   Thumb Code    12  cgrapparam.o(.text)
    SubBaseAddr                              0x0000ebbf   Thumb Code    12  cgrapparam.o(.text)
    GetBaseAddr                              0x0000ebcb   Thumb Code     8  cgrapparam.o(.text)
    AddLocalParaSel                          0x0000ebd3   Thumb Code    12  cgrapparam.o(.text)
    SetLocalParaSel                          0x0000ebdf   Thumb Code     6  cgrapparam.o(.text)
    GetLocalParaSel                          0x0000ebe5   Thumb Code     6  cgrapparam.o(.text)
    Set_department                           0x0000ebeb   Thumb Code     6  cgrapparam.o(.text)
    Add_department                           0x0000ebf1   Thumb Code    12  cgrapparam.o(.text)
    Sub_department                           0x0000ebfd   Thumb Code    12  cgrapparam.o(.text)
    Get_zone_bit                             0x0000ec09   Thumb Code     8  cgrapparam.o(.text)
    Add_department_sel                       0x0000ec11   Thumb Code    12  cgrapparam.o(.text)
    Set_department_sel                       0x0000ec1d   Thumb Code     6  cgrapparam.o(.text)
    Get_zone_bit_sel                         0x0000ec23   Thumb Code     6  cgrapparam.o(.text)
    check_localaddr                          0x0000ec29   Thumb Code    16  cgrapparam.o(.text)
    SetComRegFlag                            0x0000ec39   Thumb Code     8  cgrapparam.o(.text)
    ClrComRegFlag                            0x0000ec41   Thumb Code     8  cgrapparam.o(.text)
    GetComRegFlag                            0x0000ec49   Thumb Code     6  cgrapparam.o(.text)
    AddCompRegParaSel                        0x0000ec4f   Thumb Code    12  cgrapparam.o(.text)
    SetCompRegParaSel                        0x0000ec5b   Thumb Code     6  cgrapparam.o(.text)
    GetCompRegParaSel                        0x0000ec61   Thumb Code     6  cgrapparam.o(.text)
    SetCompRegDep                            0x0000ec67   Thumb Code     6  cgrapparam.o(.text)
    AddCompRegDep                            0x0000ec6d   Thumb Code    12  cgrapparam.o(.text)
    SubCompRegDep                            0x0000ec79   Thumb Code    12  cgrapparam.o(.text)
    GetCompRegDep                            0x0000ec85   Thumb Code     6  cgrapparam.o(.text)
    SetCompRegNum                            0x0000ec8b   Thumb Code     6  cgrapparam.o(.text)
    AddCompRegNum                            0x0000ec91   Thumb Code    12  cgrapparam.o(.text)
    SubCompRegNum                            0x0000ec9d   Thumb Code    12  cgrapparam.o(.text)
    GetCompRegNum                            0x0000eca9   Thumb Code     6  cgrapparam.o(.text)
    SetCompRegAddr                           0x0000ecaf   Thumb Code     6  cgrapparam.o(.text)
    AddCompRegAddr                           0x0000ecb5   Thumb Code    12  cgrapparam.o(.text)
    SubCompRegAddr                           0x0000ecc1   Thumb Code    12  cgrapparam.o(.text)
    GetCompRegAddr                           0x0000eccd   Thumb Code     6  cgrapparam.o(.text)
    AddCompSetDep                            0x0000ecd3   Thumb Code    12  cgrapparam.o(.text)
    SubCompSetDep                            0x0000ecdf   Thumb Code    12  cgrapparam.o(.text)
    GetCompSetDep                            0x0000eceb   Thumb Code     6  cgrapparam.o(.text)
    SetCompSetDep                            0x0000ecf1   Thumb Code     6  cgrapparam.o(.text)
    AddCompSetNum                            0x0000ecf7   Thumb Code    12  cgrapparam.o(.text)
    SubCompSetNum                            0x0000ed03   Thumb Code    12  cgrapparam.o(.text)
    GetCompSetNum                            0x0000ed0f   Thumb Code     6  cgrapparam.o(.text)
    SetCompSetNum                            0x0000ed15   Thumb Code     6  cgrapparam.o(.text)
    SetComSetSelSet                          0x0000ed1b   Thumb Code     6  cgrapparam.o(.text)
    AddComSetSelSet                          0x0000ed21   Thumb Code    12  cgrapparam.o(.text)
    SubComSetSelSet                          0x0000ed2d   Thumb Code    12  cgrapparam.o(.text)
    GetComSetSelSet                          0x0000ed39   Thumb Code     6  cgrapparam.o(.text)
    AddComSet_seltab                         0x0000ed3f   Thumb Code    12  cgrapparam.o(.text)
    SubComSet_seltab                         0x0000ed4b   Thumb Code    12  cgrapparam.o(.text)
    GetComSet_seltab                         0x0000ed57   Thumb Code     6  cgrapparam.o(.text)
    SetComSet_seltab                         0x0000ed5d   Thumb Code     6  cgrapparam.o(.text)
    SetYear                                  0x0000ed63   Thumb Code     6  cgrapparam.o(.text)
    AddYear                                  0x0000ed69   Thumb Code    12  cgrapparam.o(.text)
    SubYear                                  0x0000ed75   Thumb Code    12  cgrapparam.o(.text)
    GetYear                                  0x0000ed81   Thumb Code    34  cgrapparam.o(.text)
    SetMonth                                 0x0000eda3   Thumb Code     6  cgrapparam.o(.text)
    AddMonth                                 0x0000eda9   Thumb Code    12  cgrapparam.o(.text)
    SubMonth                                 0x0000edb5   Thumb Code    12  cgrapparam.o(.text)
    GetMonth                                 0x0000edc1   Thumb Code     6  cgrapparam.o(.text)
    AddDay                                   0x0000edc7   Thumb Code    12  cgrapparam.o(.text)
    SubDay                                   0x0000edd3   Thumb Code    12  cgrapparam.o(.text)
    GetDay                                   0x0000eddf   Thumb Code     6  cgrapparam.o(.text)
    SetDay                                   0x0000ede5   Thumb Code     6  cgrapparam.o(.text)
    SetHour                                  0x0000edeb   Thumb Code     6  cgrapparam.o(.text)
    AddHour                                  0x0000edf1   Thumb Code    12  cgrapparam.o(.text)
    SubHour                                  0x0000edfd   Thumb Code    12  cgrapparam.o(.text)
    GetHour                                  0x0000ee09   Thumb Code     6  cgrapparam.o(.text)
    SetMintue                                0x0000ee0f   Thumb Code     6  cgrapparam.o(.text)
    AddMintue                                0x0000ee15   Thumb Code    12  cgrapparam.o(.text)
    SubMintue                                0x0000ee21   Thumb Code    12  cgrapparam.o(.text)
    GetMintue                                0x0000ee2d   Thumb Code     6  cgrapparam.o(.text)
    SetSecond                                0x0000ee33   Thumb Code     6  cgrapparam.o(.text)
    AddSecond                                0x0000ee39   Thumb Code    12  cgrapparam.o(.text)
    SubSecond                                0x0000ee45   Thumb Code    12  cgrapparam.o(.text)
    GetSecond                                0x0000ee51   Thumb Code     6  cgrapparam.o(.text)
    SetSelTime                               0x0000ee57   Thumb Code     6  cgrapparam.o(.text)
    AddSelTime                               0x0000ee5d   Thumb Code    12  cgrapparam.o(.text)
    GetSelTime                               0x0000ee69   Thumb Code     6  cgrapparam.o(.text)
    SetAnnDep                                0x0000ee6f   Thumb Code     6  cgrapparam.o(.text)
    AddAnnDep                                0x0000ee75   Thumb Code    12  cgrapparam.o(.text)
    SubAnnDep                                0x0000ee81   Thumb Code    12  cgrapparam.o(.text)
    GetAnnDep                                0x0000ee8d   Thumb Code     6  cgrapparam.o(.text)
    SetAnnCompNum                            0x0000ee93   Thumb Code     6  cgrapparam.o(.text)
    AddAnnCompNum                            0x0000ee99   Thumb Code    12  cgrapparam.o(.text)
    SubAnnCompNum                            0x0000eea5   Thumb Code    12  cgrapparam.o(.text)
    GetAnnCompNum                            0x0000eeb1   Thumb Code     6  cgrapparam.o(.text)
    SetAnnSel                                0x0000eeb7   Thumb Code     6  cgrapparam.o(.text)
    AddAnnSel                                0x0000eebd   Thumb Code    12  cgrapparam.o(.text)
    GetAnnSel                                0x0000eec9   Thumb Code     6  cgrapparam.o(.text)
    AddSysCheckDep                           0x0000eecf   Thumb Code    12  cgrapparam.o(.text)
    SubSysCheckDep                           0x0000eedb   Thumb Code    12  cgrapparam.o(.text)
    SetSysCheckDep                           0x0000eee7   Thumb Code     6  cgrapparam.o(.text)
    GetSysCheckDep                           0x0000eeed   Thumb Code     6  cgrapparam.o(.text)
    AddStatusDep                             0x0000eef3   Thumb Code    12  cgrapparam.o(.text)
    SubStatusDep                             0x0000eeff   Thumb Code    12  cgrapparam.o(.text)
    SetStatusDep                             0x0000ef0b   Thumb Code     6  cgrapparam.o(.text)
    GetStatusDep                             0x0000ef11   Thumb Code     6  cgrapparam.o(.text)
    AddStatusComp                            0x0000ef17   Thumb Code    12  cgrapparam.o(.text)
    SubStatusComp                            0x0000ef23   Thumb Code    12  cgrapparam.o(.text)
    SetStatusComp                            0x0000ef2f   Thumb Code     6  cgrapparam.o(.text)
    GetStatusComp                            0x0000ef35   Thumb Code     6  cgrapparam.o(.text)
    AddStatusFlag                            0x0000ef3b   Thumb Code    12  cgrapparam.o(.text)
    SetStatusFlag                            0x0000ef47   Thumb Code     6  cgrapparam.o(.text)
    GetStatusFlag                            0x0000ef4d   Thumb Code     6  cgrapparam.o(.text)
    AddIntenDep                              0x0000ef53   Thumb Code    12  cgrapparam.o(.text)
    SubIntenDep                              0x0000ef5f   Thumb Code    12  cgrapparam.o(.text)
    SetIntenDep                              0x0000ef6b   Thumb Code   118  cgrapparam.o(.text)
    GetIntenDep                              0x0000efe1   Thumb Code     6  cgrapparam.o(.text)
    AddIntenComp                             0x0000efe7   Thumb Code    12  cgrapparam.o(.text)
    SubIntenComp                             0x0000eff3   Thumb Code    12  cgrapparam.o(.text)
    SetIntenComp                             0x0000efff   Thumb Code     6  cgrapparam.o(.text)
    GetIntenComp                             0x0000f005   Thumb Code     6  cgrapparam.o(.text)
    AddIntenFlag                             0x0000f00b   Thumb Code    12  cgrapparam.o(.text)
    SetIntenFlag                             0x0000f017   Thumb Code     6  cgrapparam.o(.text)
    GetIntenFlag                             0x0000f01d   Thumb Code     6  cgrapparam.o(.text)
    State_0mA                                0x0000f031   Thumb Code    14  csetcurrent.o(.text)
    State_6mA                                0x0000f03f   Thumb Code    24  csetcurrent.o(.text)
    State_20mA                               0x0000f057   Thumb Code    14  csetcurrent.o(.text)
    get_loopLD_state                         0x0000f065   Thumb Code    10  csetcurrent.o(.text)
    clrbuf                                   0x0000f06f   Thumb Code    18  csetcurrent.o(.text)
    printbuf                                 0x0000f081   Thumb Code    32  csetcurrent.o(.text)
    clr_loop_LD_counter                      0x0000f0a1   Thumb Code    28  csetcurrent.o(.text)
    get_loop_LD_counter                      0x0000f0bd   Thumb Code     6  csetcurrent.o(.text)
    add_loop_LD_counter                      0x0000f0c3   Thumb Code    12  csetcurrent.o(.text)
    loop_LD_state                            0x0000f0cf   Thumb Code    38  csetcurrent.o(.text)
    set_print                                0x0000f0f5   Thumb Code     8  csetcurrent.o(.text)
    get_print                                0x0000f0fd   Thumb Code     6  csetcurrent.o(.text)
    clr_print                                0x0000f103   Thumb Code     8  csetcurrent.o(.text)
    state_loopld_printf                      0x0000f10b   Thumb Code    40  csetcurrent.o(.text)
    __aeabi_memcpy                           0x0000f169   Thumb Code     0  rt_memcpy_v6.o(.text)
    __rt_memcpy                              0x0000f169   Thumb Code   138  rt_memcpy_v6.o(.text)
    _memcpy_lastbytes                        0x0000f1cf   Thumb Code     0  rt_memcpy_v6.o(.text)
    __aeabi_memcpy4                          0x0000f1f3   Thumb Code     0  rt_memcpy_w.o(.text)
    __aeabi_memcpy8                          0x0000f1f3   Thumb Code     0  rt_memcpy_w.o(.text)
    __rt_memcpy_w                            0x0000f1f3   Thumb Code   100  rt_memcpy_w.o(.text)
    _memcpy_lastbytes_aligned                0x0000f23b   Thumb Code     0  rt_memcpy_w.o(.text)
    __aeabi_memclr                           0x0000f257   Thumb Code     0  rt_memclr.o(.text)
    __rt_memclr                              0x0000f257   Thumb Code    68  rt_memclr.o(.text)
    _memset                                  0x0000f25b   Thumb Code     0  rt_memclr.o(.text)
    __aeabi_memclr4                          0x0000f29b   Thumb Code     0  rt_memclr_w.o(.text)
    __aeabi_memclr8                          0x0000f29b   Thumb Code     0  rt_memclr_w.o(.text)
    __rt_memclr_w                            0x0000f29b   Thumb Code    78  rt_memclr_w.o(.text)
    _memset_w                                0x0000f29f   Thumb Code     0  rt_memclr_w.o(.text)
    __user_setup_stackheap                   0x0000f2e9   Thumb Code    74  sys_stackheap_outer.o(.text)
    __user_libspace                          0x0000f335   Thumb Code     8  libspace.o(.text)
    __user_perproc_libspace                  0x0000f335   Thumb Code     0  libspace.o(.text)
    __user_perthread_libspace                0x0000f335   Thumb Code     0  libspace.o(.text)
    __rt_fp_status_addr                      0x0000f33d   Thumb Code     8  rt_fp_status_addr_intlibspace.o(.text)
    _sys_exit                                0x0000f345   Thumb Code     8  sys_exit.o(.text)
    __semihosting_library_function           0x0000f351   Thumb Code     0  indicate_semi.o(.text)
    _fp_init                                 0x0000f351   Thumb Code    14  fpinit.o(x$fpl$fpinit)
    __fplib_config_pureend_doubles           0x0000f35d   Thumb Code     0  fpinit.o(x$fpl$fpinit)
    GB2312Hzk                                0x0000f35e   Data          64  lcd.o(.constdata)
    acASC8x16                                0x0000f39e   Data        3104  lcd.o(.constdata)
    acHZK16F                                 0x0000ffbe   Data       262176  lcd.o(.constdata)
    fault_restore_cfg                        0x0004ffde   Data           2  ccomhandle.o(.constdata)
    Region$$Table$$Base                      0x00050024   Number         0  anon$$obj.o(Region$$Table)
    Region$$Table$$Limit                     0x00050044   Number         0  anon$$obj.o(Region$$Table)
    SystemFrequency                          0x10000000   Data           4  system_lpc17xx.o(.data)
    msTicks                                  0x10000004   Data           4  delay.o(.data)
    I2C_sla                                  0x10000008   Data           1  i2c.o(.data)
    I2C_suba                                 0x1000000c   Data           4  i2c.o(.data)
    I2C_suba_num                             0x10000010   Data           1  i2c.o(.data)
    I2C_buf                                  0x10000014   Data           4  i2c.o(.data)
    I2C_num                                  0x10000018   Data           4  i2c.o(.data)
    I2C_end                                  0x1000001c   Data           1  i2c.o(.data)
    I2C_suba_en                              0x1000001d   Data           1  i2c.o(.data)
    tp3                                      0x1000001e   Data           2  uart.o(.data)
    tp4                                      0x10000020   Data           2  uart.o(.data)
    Save_Ann_flag                            0x10000022   Data           1  uart.o(.data)
    tp                                       0x10000023   Data           1  uart.o(.data)
    tp1                                      0x10000024   Data           1  uart.o(.data)
    tp2                                      0x10000025   Data           1  uart.o(.data)
    vAnnCounter                              0x10000026   Data           1  uart.o(.data)
    hanzi                                    0x10000028   Data           2  uart.o(.data)
    vTimeTickCounter                         0x1000002c   Data           1  ctime.o(.data)
    vHeartTick                               0x10000030   Data           4  ctime.o(.data)
    vSpeakerTick                             0x10000034   Data           2  ctime.o(.data)
    vLedFlag                                 0x10000038   Data           4  ctime.o(.data)
    vScreenMaskFlag                          0x1000003c   Data           4  ctime.o(.data)
    vCurTime0Def                             0x10000044   Data           4  ctimedef.o(.data)
    vTimer0Counter                           0x10000048   Data           4  ctimedef.o(.data)
    vTimerRisingCounter                      0x1000004c   Data           4  ctimedef.o(.data)
    vTimer0Wait2msCounter                    0x10000050   Data           4  ctimedef.o(.data)
    vWait2msState                            0x10000054   Data           1  ctimedef.o(.data)
    vWaittoRun                               0x10000068   Data           4  ctimedef.o(.data)
    pwm1startflag                            0x1000006c   Data           1  pwm.o(.data)
    match_counter1                           0x10000070   Data           4  pwm.o(.data)
    Extint1_flag                             0x10000074   Data           1  extint.o(.data)
    Extint3_flag                             0x10000075   Data           1  extint.o(.data)
    fallingcount                             0x10000078   Data           4  extint.o(.data)
    vriseingcount                            0x1000007c   Data           4  extint.o(.data)
    shu                                      0x10000080   Data         288  lcd.o(.data)
    Hzk1                                     0x100001a0   Data         880  lcd.o(.data)
    TimeAndDate                              0x10000510   Data           8  pcf8563.o(.data)
    vBackValue                               0x10000518   Data           1  key.o(.data)
    Convertdata                              0x1000051c   Data           6  ccomhandle.o(.data)
    Flag195                                  0x10000522   Data           1  ccomhandle.o(.data)
    FirstAlarm_Flag                          0x10000523   Data           1  ccomhandle.o(.data)
    AlarmSum                                 0x10000524   Data           3  ccomhandle.o(.data)
    CheckInfoFlag                            0x10000527   Data           3  ccomhandle.o(.data)
    com1Count                                0x1000052a   Data           1  ccomhandle.o(.data)
    reset_fault_flag                         0x1000052b   Data           1  ccomhandle.o(.data)
    reset_batt_flag                          0x1000052c   Data           1  ccomhandle.o(.data)
    Address_Counter                          0x1000052d   Data           1  ccomhandle.o(.data)
    vdisplay_alarm                           0x1000052e   Data           5  ccomhandle.o(.data)
    vDispaly_alarm_flag                      0x10000533   Data           1  ccomhandle.o(.data)
    UartClrflag                              0x10000534   Data           1  ccomhandle.o(.data)
    UartClrLen                               0x10000535   Data           1  ccomhandle.o(.data)
    DefAddrEn                                0x10000536   Data           1  ccomhandle.o(.data)
    UartSendLen                              0x10000537   Data           1  ccomhandle.o(.data)
    pTxbuf                                   0x10000538   Data           4  ccomhandle.o(.data)
    MasterAddr                               0x1000053c   Data           1  ccomhandle.o(.data)
    valarmtime                               0x1000053e   Data           8  ccomhandle.o(.data)
    alarm_date                               0x10000546   Data           8  ccomhandle.o(.data)
    pdUartSend                               0x10000550   Data           4  ccomhandle.o(.data)
    pdUartRcv                                0x10000554   Data           4  ccomhandle.o(.data)
    FlashInfo                                0x10000558   Data           2  ccomhandle.o(.data)
    compreg                                  0x1000055a   Data           8  ccomhandle.o(.data)
    dataHeart                                0x10000564   Data           2  ccompara.o(.data)
    dataCount                                0x10000566   Data           1  ccompara.o(.data)
    temp                                     0x10000567   Data           1  ccompara.o(.data)
    vBattLowSum                              0x10000568   Data           4  ccompara.o(.data)
    vBrokenSum                               0x1000056c   Data           4  ccompara.o(.data)
    vCom0Count                               0x10000570   Data           1  ccompara.o(.data)
    vHeartFaultFlag                          0x10000571   Data           1  ccompara.o(.data)
    vAlarmFlag                               0x10000572   Data           2  ccompara.o(.data)
    FirstAlarm_Addr                          0x10000574   Data           2  ccompara.o(.data)
    vAlarmInfoFlag                           0x10000576   Data           1  ccompara.o(.data)
    AlarmFlag                                0x10000577   Data           4  ccompara.o(.data)
    vReleaseFlag                             0x1000057b   Data           1  ccompara.o(.data)
    vFlag_195                                0x1000057c   Data           1  ccompara.o(.data)
    vCirAddrCurrent                          0x1000057d   Data           1  ccompara.o(.data)
    vFlagLed                                 0x1000057e   Data           1  ccompara.o(.data)
    RisingCount                              0x10000580   Data           4  caddresscount.o(.data)
    circuit_counter                          0x10000584   Data           4  caddresscount.o(.data)
    vCirAddrv                                0x10000588   Data           1  caddresscount.o(.data)
    syn_flag                                 0x10000589   Data           1  caddresscount.o(.data)
    fireflag                                 0x1000058a   Data           2  caddresscount.o(.data)
    alarm_circuit_flag                       0x1000058c   Data           1  caddresscount.o(.data)
    xialasignal                              0x1000058d   Data           1  caddresscount.o(.data)
    weixialasignal                           0x1000058e   Data           1  caddresscount.o(.data)
    vCounter                                 0x10000590   Data           3  ckeycounter.o(.data)
    vGrapCounter                             0x10000593   Data           1  ckeycounter.o(.data)
    vSelMenu_flag                            0x10000594   Data           1  ckeycounter.o(.data)
    vPasswordFlag                            0x10000595   Data           1  ckeycounter.o(.data)
    vHisCountDown                            0x10000598   Data           4  ctaskdown.o(.data)
    vHistCount                               0x1000059c   Data           4  ctaskdown.o(.data)
    menu_in_setuplocaladdr                   0x100005a0   Data           1  ctasksure.o(.data)
    vMaskCount                               0x100005a1   Data           1  ctasksure.o(.data)
    vmaskflag                                0x100005a2   Data           1  ctasksure.o(.data)
    vAnnUartFlag                             0x100005a3   Data           1  ctasksure.o(.data)
    vZjFlag                                  0x100005a4   Data           1  ctasksure.o(.data)
    vSpeaker_Counter                         0x100005a5   Data           1  ctasksure.o(.data)
    enter_flag                               0x100005a6   Data           1  ctasksure.o(.data)
    timedate                                 0x100005a8   Data           8  ctasksure.o(.data)
    loopflag                                 0x100005b0   Data           1  runfunction.o(.data)
    vCounterLed                              0x100005b1   Data           1  runfunction.o(.data)
    HeartTaskFlag                            0x100005b2   Data           1  runfunction.o(.data)
    csflag                                   0x100005b3   Data           1  runfunction.o(.data)
    TickCounter                              0x100005b4   Data           1  runfunction.o(.data)
    vHeartLostFlag                           0x100005b5   Data           1  runfunction.o(.data)
    vMaskScreen                              0x100005b6   Data           1  runfunction.o(.data)
    alarm_display_counter                    0x100005b7   Data           1  runfunction.o(.data)
    record_alarmnum                          0x100005b8   Data           1  runfunction.o(.data)
    alarm_newest_pos                         0x100005ba   Data           1  runfunction.o(.data)
    his_pos                                  0x100005be   Data           2  runfunction.o(.data)
    vRunLedCount                             0x100005c2   Data           1  crunctrl.o(.data)
    m_SysRunFlag                             0x100005c4   Data           4  csysrunflag.o(.data)
    m_LpCkFlag                               0x100005d8   Data           4  clpckctrl.o(.data)
    m_LpScanFlag                             0x100005dc   Data           4  clpscanctrl.o(.data)
    vPWM1Time                                0x100005e0   Data           2  ctimectrl.o(.data)
    vPWM1StopFlag                            0x100005e2   Data           1  ctimectrl.o(.data)
    bufcounter                               0x100005f4   Data           1  ctimectrl.o(.data)
    vRun1s                                   0x100005f5   Data           1  ctimectrl.o(.data)
    vRunTime0                                0x100005f6   Data           2  ctimectrl.o(.data)
    vRunTime1                                0x100005f8   Data           2  ctimectrl.o(.data)
    mRunTime0                                0x100005fa   Data           2  ctimectrl.o(.data)
    vPIT0Run                                 0x100005fc   Data           1  ctimectrl.o(.data)
    vPIT1Run                                 0x100005fd   Data           1  ctimectrl.o(.data)
    vRunValue                                0x10000600   Data           4  ctimectrl.o(.data)
    vRunToIap                                0x10000604   Data           1  ctimectrl.o(.data)
    vInten_Flag                              0x10000606   Data           1  ccompinten.o(.data)
    hz                                       0x1000065b   Data          33  setmenu.o(.data)
    vCirCounter                              0x1000067c   Data           1  cflashparam.o(.data)
    vHisCounter                              0x1000067e   Data           2  cflashparam.o(.data)
    vHistFlag                                0x10000680   Data           1  cflashparam.o(.data)
    vPageCounter                             0x10000681   Data           1  cflashparam.o(.data)
    AlarmInfo                                0x10000682   Data         936  cflashparam.o(.data)
    data_note                                0x10000a2a   Data           2  cflashparam.o(.data)
    vHisC                                    0x10000a2d   Data           3  cflashparam.o(.data)
    flash_record                             0x10000a30   Data         400  cflashparam.o(.data)
    basic_record                             0x10000bc0   Data           4  cflashparam.o(.data)
    comp_record                              0x10000bc4   Data           4  cflashparam.o(.data)
    mask_record                              0x10000bc8   Data           4  cflashparam.o(.data)
    alarm_record                             0x10000bcc   Data           4  cflashparam.o(.data)
    node_record                              0x10000bd0   Data           4  cflashparam.o(.data)
    nodenums_record                          0x10000bd4   Data           4  cflashparam.o(.data)
    hist_record                              0x10000bd8   Data           4  cflashparam.o(.data)
    histnums_record                          0x10000bdc   Data           4  cflashparam.o(.data)
    histsufix_record                         0x10000be0   Data           4  cflashparam.o(.data)
    vLocalAddress                            0x10000bec   Data           3  cgrapparam.o(.data)
    vLocalParaSel                            0x10000bef   Data           1  cgrapparam.o(.data)
    department                               0x10000bf0   Data           3  cgrapparam.o(.data)
    department_sum                           0x10000bf3   Data           1  cgrapparam.o(.data)
    department_sel                           0x10000bf4   Data           1  cgrapparam.o(.data)
    vComRegFlag                              0x10000bf5   Data           1  cgrapparam.o(.data)
    vCompRegDep                              0x10000bf6   Data           2  cgrapparam.o(.data)
    vCompRegNum                              0x10000bf8   Data           2  cgrapparam.o(.data)
    vCompRegAddr                             0x10000bfa   Data           1  cgrapparam.o(.data)
    vCompRegParaSel                          0x10000bfb   Data           1  cgrapparam.o(.data)
    vCompSetDep                              0x10000bfc   Data           2  cgrapparam.o(.data)
    vCompSetNum                              0x10000bfe   Data           2  cgrapparam.o(.data)
    vComSetSelSet                            0x10000c00   Data           1  cgrapparam.o(.data)
    vComSetSel                               0x10000c01   Data           1  cgrapparam.o(.data)
    vYear                                    0x10000c02   Data           2  cgrapparam.o(.data)
    vMonth                                   0x10000c04   Data           2  cgrapparam.o(.data)
    vDay                                     0x10000c06   Data           2  cgrapparam.o(.data)
    vHour                                    0x10000c08   Data           2  cgrapparam.o(.data)
    vMintue                                  0x10000c0a   Data           2  cgrapparam.o(.data)
    vSecond                                  0x10000c0c   Data           2  cgrapparam.o(.data)
    vSelTime                                 0x10000c0e   Data           1  cgrapparam.o(.data)
    vAnnDep                                  0x10000c10   Data           2  cgrapparam.o(.data)
    vAnnCompNum                              0x10000c12   Data           2  cgrapparam.o(.data)
    vAnnSel                                  0x10000c14   Data           1  cgrapparam.o(.data)
    vSysCheckDep                             0x10000c15   Data           1  cgrapparam.o(.data)
    vStatusDep                               0x10000c16   Data           1  cgrapparam.o(.data)
    vStatusComp                              0x10000c17   Data           1  cgrapparam.o(.data)
    vStatusFlag                              0x10000c18   Data           1  cgrapparam.o(.data)
    vIntenDep                                0x10000c19   Data           1  cgrapparam.o(.data)
    vIntenComp                               0x10000c1a   Data           1  cgrapparam.o(.data)
    vIntenFlag                               0x10000c1b   Data           1  cgrapparam.o(.data)
    loop_LD_counter                          0x10000c1c   Data           1  csetcurrent.o(.data)
    printflag                                0x10000c1d   Data           1  csetcurrent.o(.data)
    testann                                  0x10000c20   Data        2000  uart.o(.bss)
    testann1                                 0x100013f0   Data          10  uart.o(.bss)
    data0                                    0x100013fa   Data           9  uart.o(.bss)
    data2                                    0x10001403   Data        2805  uart.o(.bss)
    data3                                    0x10001ef8   Data          12  uart.o(.bss)
    vKeyCounter                              0x10001f04   Data          24  key.o(.bss)
    UartRxbuf                                0x10001f1c   Data           9  ccomhandle.o(.bss)
    UartTxbuf                                0x10001f25   Data           9  ccomhandle.o(.bss)
    Rxdata                                   0x10001f2e   Data           9  ccomhandle.o(.bss)
    histinfo                                 0x10001f38   Data          18  ccomhandle.o(.bss)
    alarm_info                               0x10001f4a   Data          18  ccomhandle.o(.bss)
    data                                     0x10001f5c   Data         180  ccompara.o(.bss)
    data1                                    0x10002010   Data          10  ccompara.o(.bss)
    vCom0Data                                0x1000201a   Data          20  ccompara.o(.bss)
    vCirAlarmData                            0x1000202e   Data          50  ccompara.o(.bss)
    Send195                                  0x10002060   Data          15  csendto195.o(.bss)
    setupinfo                                0x10002070   Data          18  ctasksure.o(.bss)
    alarmpart                                0x10002082   Data          51  runfunction.o(.bss)
    menu_alarm_info                          0x100020b6   Data          18  runfunction.o(.bss)
    alarm_info_loop                          0x100020c8   Data          18  runfunction.o(.bss)
    m_LpAnsFlag                              0x100020da   Data          10  clpansctrl.o(.bss)
    m_NodeInfo                               0x100020e4   Data        1020  cnodeinfo.o(.bss)
    vGetDatatoFlash                          0x100024e0   Data         663  cflashparam.o(.bss)
    vGetDepNum                               0x10002777   Data          51  cflashparam.o(.bss)
    vReadFlashData                           0x100027aa   Data          16  cflashparam.o(.bss)
    vGetPsn                                  0x100027ba   Data         408  cflashparam.o(.bss)
    FlashData                                0x10002952   Data         765  cflashparam.o(.bss)
    vGetCom0Ann                              0x10002c50   Data        1600  cflashparam.o(.bss)
    vHistSufixInfo                           0x10003290   Data          10  cflashparam.o(.bss)
    BaseInfoF                                0x1000329a   Data         256  cflashparam.o(.bss)
    vSendPSNToFlash                          0x1000339a   Data         408  cflashparam.o(.bss)
    vMaskPSN                                 0x10003532   Data          51  cflashparam.o(.bss)
    vHisList                                 0x10003565   Data       17017  cflashparam.o(.bss)
    state_loopLD                             0x100077de   Data          10  csetcurrent.o(.bss)
    __libspace_start                         0x100077e8   Data          96  libspace.o(.bss)
    __temporary_stack_top$libspace           0x10007848   Data           0  libspace.o(.bss)



==============================================================================

Memory Map of the image

  Image Entry point : 0x000000cd

  Load Region LR_IROM1 (Base: 0x00000000, Size: 0x00050c64, Max: 0x00080000, ABSOLUTE, COMPRESSED[0x00050418])

    Execution Region ER_IROM1 (Base: 0x00000000, Size: 0x00050044, Max: 0x00080000, ABSOLUTE)

    Base Addr    Size         Type   Attr      Idx    E Section Name        Object

    0x00000000   0x000000cc   Data   RO            3    RESET               startup_lpc17xx.o
    0x000000cc   0x00000008   Code   RO         1367  * !!!main             c_w.l(__main.o)
    0x000000d4   0x00000034   Code   RO         1526    !!!scatter          c_w.l(__scatter.o)
    0x00000108   0x0000005a   Code   RO         1524    !!dczerorl2         c_w.l(__dczerorl2.o)
    0x00000162   0x00000002   PAD
    0x00000164   0x0000001c   Code   RO         1528    !!handler_zi        c_w.l(__scatter_zi.o)
    0x00000180   0x00000006   Code   RO         1394    .ARM.Collect$$libinit$$00000000  c_w.l(libinit.o)
    0x00000186   0x00000000   Code   RO         1402    .ARM.Collect$$libinit$$00000006  c_w.l(libinit2.o)
    0x00000186   0x00000000   Code   RO         1404    .ARM.Collect$$libinit$$00000008  c_w.l(libinit2.o)
    0x00000186   0x00000000   Code   RO         1406    .ARM.Collect$$libinit$$0000000A  c_w.l(libinit2.o)
    0x00000186   0x00000000   Code   RO         1409    .ARM.Collect$$libinit$$0000000D  c_w.l(libinit2.o)
    0x00000186   0x00000000   Code   RO         1411    .ARM.Collect$$libinit$$0000000F  c_w.l(libinit2.o)
    0x00000186   0x00000000   Code   RO         1413    .ARM.Collect$$libinit$$00000011  c_w.l(libinit2.o)
    0x00000186   0x00000000   Code   RO         1415    .ARM.Collect$$libinit$$00000013  c_w.l(libinit2.o)
    0x00000186   0x00000000   Code   RO         1417    .ARM.Collect$$libinit$$00000015  c_w.l(libinit2.o)
    0x00000186   0x00000000   Code   RO         1419    .ARM.Collect$$libinit$$00000017  c_w.l(libinit2.o)
    0x00000186   0x00000000   Code   RO         1421    .ARM.Collect$$libinit$$00000019  c_w.l(libinit2.o)
    0x00000186   0x00000000   Code   RO         1423    .ARM.Collect$$libinit$$0000001B  c_w.l(libinit2.o)
    0x00000186   0x00000000   Code   RO         1425    .ARM.Collect$$libinit$$0000001D  c_w.l(libinit2.o)
    0x00000186   0x00000000   Code   RO         1427    .ARM.Collect$$libinit$$0000001F  c_w.l(libinit2.o)
    0x00000186   0x00000000   Code   RO         1429    .ARM.Collect$$libinit$$00000021  c_w.l(libinit2.o)
    0x00000186   0x00000000   Code   RO         1433    .ARM.Collect$$libinit$$00000028  c_w.l(libinit2.o)
    0x00000186   0x00000000   Code   RO         1435    .ARM.Collect$$libinit$$0000002A  c_w.l(libinit2.o)
    0x00000186   0x00000000   Code   RO         1437    .ARM.Collect$$libinit$$0000002C  c_w.l(libinit2.o)
    0x00000186   0x00000000   Code   RO         1439    .ARM.Collect$$libinit$$0000002E  c_w.l(libinit2.o)
    0x00000186   0x00000002   Code   RO         1440    .ARM.Collect$$libinit$$0000002F  c_w.l(libinit2.o)
    0x00000188   0x00000002   Code   RO         1465    .ARM.Collect$$libshutdown$$00000000  c_w.l(libshutdown.o)
    0x0000018a   0x00000000   Code   RO         1479    .ARM.Collect$$libshutdown$$00000003  c_w.l(libshutdown2.o)
    0x0000018a   0x00000000   Code   RO         1482    .ARM.Collect$$libshutdown$$00000006  c_w.l(libshutdown2.o)
    0x0000018a   0x00000000   Code   RO         1485    .ARM.Collect$$libshutdown$$00000009  c_w.l(libshutdown2.o)
    0x0000018a   0x00000000   Code   RO         1487    .ARM.Collect$$libshutdown$$0000000B  c_w.l(libshutdown2.o)
    0x0000018a   0x00000000   Code   RO         1490    .ARM.Collect$$libshutdown$$0000000E  c_w.l(libshutdown2.o)
    0x0000018a   0x00000002   Code   RO         1491    .ARM.Collect$$libshutdown$$0000000F  c_w.l(libshutdown2.o)
    0x0000018c   0x00000000   Code   RO         1369    .ARM.Collect$$rtentry$$00000000  c_w.l(rtentry.o)
    0x0000018c   0x00000000   Code   RO         1371    .ARM.Collect$$rtentry$$00000002  c_w.l(rtentry2.o)
    0x0000018c   0x00000006   Code   RO         1383    .ARM.Collect$$rtentry$$00000004  c_w.l(rtentry4.o)
    0x00000192   0x00000000   Code   RO         1373    .ARM.Collect$$rtentry$$00000009  c_w.l(rtentry2.o)
    0x00000192   0x00000004   Code   RO         1374    .ARM.Collect$$rtentry$$0000000A  c_w.l(rtentry2.o)
    0x00000196   0x00000000   Code   RO         1376    .ARM.Collect$$rtentry$$0000000C  c_w.l(rtentry2.o)
    0x00000196   0x00000008   Code   RO         1377    .ARM.Collect$$rtentry$$0000000D  c_w.l(rtentry2.o)
    0x0000019e   0x00000002   Code   RO         1398    .ARM.Collect$$rtexit$$00000000  c_w.l(rtexit.o)
    0x000001a0   0x00000000   Code   RO         1444    .ARM.Collect$$rtexit$$00000002  c_w.l(rtexit2.o)
    0x000001a0   0x00000004   Code   RO         1445    .ARM.Collect$$rtexit$$00000003  c_w.l(rtexit2.o)
    0x000001a4   0x00000006   Code   RO         1446    .ARM.Collect$$rtexit$$00000004  c_w.l(rtexit2.o)
    0x000001aa   0x00000002   PAD
    0x000001ac   0x0000003c   Code   RO            5    .text               startup_lpc17xx.o
    0x000001e8   0x00000040   Code   RO           51    .text               main.o
    0x00000228   0x0000003c   Code   RO          172    .text               delay.o
    0x00000264   0x00000070   Code   RO          508    .text               crelay.o
    0x000002d4   0x00000014   Code   RO         1293    .text               cintstend.o
    0x000002e8   0x00000006   Code   RO         1365    .text               c_w.l(heapauxi.o)
    0x000002ee   0x0000000c   Code   RO         1387    .text               c_w.l(exit.o)
    0x000002fa   0x00000002   Code   RO         1468    .text               c_w.l(use_no_semi.o)
    0x000002fc   0x00000004   Code   RO            4    .ARM.__at_0x02FC    startup_lpc17xx.o
    0x00000300   0x00000234   Code   RO           27    .text               system_lpc17xx.o
    0x00000534   0x000005ac   Code   RO          157    .text               ssp.o
    0x00000ae0   0x000004d0   Code   RO          199    .text               i2c.o
    0x00000fb0   0x000007fc   Code   RO          229    .text               uart.o
    0x000017ac   0x000001d0   Code   RO          291    .text               gpioinit.o
    0x0000197c   0x000003e4   Code   RO          306    .text               ctime.o
    0x00001d60   0x00000170   Code   RO          342    .text               ctimedef.o
    0x00001ed0   0x00000130   Code   RO          360    .text               pwm.o
    0x00002000   0x0000021c   Code   RO          381    .text               extint.o
    0x0000221c   0x000000e0   Code   RO          405    .text               cgpioirq.o
    0x000022fc   0x000008a8   Code   RO          423    .text               lcd.o
    0x00002ba4   0x000005ac   Code   RO          453    .text               pcf8563.o
    0x00003150   0x000001a4   Code   RO          474    .text               key.o
    0x000032f4   0x000001a4   Code   RO          496    .text               cled.o
    0x00003498   0x00000d78   Code   RO          520    .text               ccomhandle.o
    0x00004210   0x0000042c   Code   RO          574    .text               ccompara.o
    0x0000463c   0x00000168   Code   RO          602    .text               caddresscount.o
    0x000047a4   0x0000008c   Code   RO          618    .text               csendto195.o
    0x00004830   0x000000e2   Code   RO          633    .text               cgetgrap.o
    0x00004912   0x00000002   PAD
    0x00004914   0x000000d8   Code   RO          645    .text               ckeycounter.o
    0x000049ec   0x00000676   Code   RO          663    .text               ctaskdown.o
    0x00005062   0x00000002   PAD
    0x00005064   0x000001c0   Code   RO          682    .text               ctaskreturn.o
    0x00005224   0x00001372   Code   RO          700    .text               ctasksure.o
    0x00006596   0x00000002   PAD
    0x00006598   0x00000696   Code   RO          726    .text               ctaskup.o
    0x00006c2e   0x00000002   PAD
    0x00006c30   0x0000080c   Code   RO          739    .text               runfunction.o
    0x0000743c   0x000004b4   Code   RO          762    .text               tasklist.o
    0x000078f0   0x000001cc   Code   RO          798    .text               crunctrl.o
    0x00007abc   0x000001a0   Code   RO          822    .text               csysrunflag.o
    0x00007c5c   0x000000c8   Code   RO          840    .text               clpansctrl.o
    0x00007d24   0x00000150   Code   RO          859    .text               clpckctrl.o
    0x00007e74   0x000001f8   Code   RO          877    .text               clpscanctrl.o
    0x0000806c   0x0000036c   Code   RO          895    .text               ctimectrl.o
    0x000083d8   0x00000200   Code   RO          920    .text               cnodeinfo.o
    0x000085d8   0x000002e8   Code   RO          945    .text               store_addr.o
    0x000088c0   0x000006c6   Code   RO          957    .text               alarmenu.o
    0x00008f86   0x00000002   PAD
    0x00008f88   0x000006aa   Code   RO          981    .text               breakdown.o
    0x00009632   0x00000002   PAD
    0x00009634   0x000003f8   Code   RO          993    .text               cannotate.o
    0x00009a2c   0x000004bc   Code   RO         1008    .text               ccompinten.o
    0x00009ee8   0x00000778   Code   RO         1023    .text               ccompreg.o
    0x0000a660   0x000002d4   Code   RO         1038    .text               ccompset.o
    0x0000a934   0x0000047c   Code   RO         1050    .text               ccompstat.o
    0x0000adb0   0x00000a3c   Code   RO         1063    .text               cdatemod.o
    0x0000b7ec   0x000001d4   Code   RO         1079    .text               checkmenu.o
    0x0000b9c0   0x000008d8   Code   RO         1091    .text               chistorylist.o
    0x0000c298   0x00000410   Code   RO         1112    .text               clocalset.o
    0x0000c6a8   0x000000ac   Code   RO         1126    .text               cmodelfault.o
    0x0000c754   0x00000180   Code   RO         1138    .text               csyscheck.o
    0x0000c8d4   0x00000078   Code   RO         1156    .text               csysreset.o
    0x0000c94c   0x00000078   Code   RO         1168    .text               ctestself.o
    0x0000c9c4   0x00000578   Code   RO         1180    .text               mainmenu.o
    0x0000cf3c   0x000003a4   Code   RO         1194    .text               setmenu.o
    0x0000d2e0   0x000002b0   Code   RO         1209    .text               startmenu.o
    0x0000d590   0x000001e0   Code   RO         1222    .text               testmenu.o
    0x0000d770   0x00001420   Code   RO         1253    .text               cflashparam.o
    0x0000eb90   0x000004a0   Code   RO         1275    .text               cgrapparam.o
    0x0000f030   0x00000138   Code   RO         1308    .text               csetcurrent.o
    0x0000f168   0x0000008a   Code   RO         1357    .text               c_w.l(rt_memcpy_v6.o)
    0x0000f1f2   0x00000064   Code   RO         1359    .text               c_w.l(rt_memcpy_w.o)
    0x0000f256   0x00000044   Code   RO         1361    .text               c_w.l(rt_memclr.o)
    0x0000f29a   0x0000004e   Code   RO         1363    .text               c_w.l(rt_memclr_w.o)
    0x0000f2e8   0x0000004a   Code   RO         1385    .text               c_w.l(sys_stackheap_outer.o)
    0x0000f332   0x00000002   PAD
    0x0000f334   0x00000008   Code   RO         1395    .text               c_w.l(libspace.o)
    0x0000f33c   0x00000008   Code   RO         1453    .text               c_w.l(rt_fp_status_addr_intlibspace.o)
    0x0000f344   0x0000000c   Code   RO         1457    .text               c_w.l(sys_exit.o)
    0x0000f350   0x00000000   Code   RO         1470    .text               c_w.l(indicate_semi.o)
    0x0000f350   0x0000000e   Code   RO         1441    x$fpl$fpinit        fz_ws.l(fpinit.o)
    0x0000f35e   0x00040c80   Data   RO          424    .constdata          lcd.o
    0x0004ffde   0x00000002   Data   RO          522    .constdata          ccomhandle.o
    0x0004ffe0   0x00000041   Data   RO         1051    .constdata          ccompstat.o
    0x00050021   0x00000003   PAD
    0x00050024   0x00000020   Data   RO         1522    Region$$Table       anon$$obj.o


    Execution Region RW_IRAM1 (Base: 0x10000000, Size: 0x00007a48, Max: 0x00008000, ABSOLUTE, COMPRESSED[0x000003d4])

    Base Addr    Size         Type   Attr      Idx    E Section Name        Object

    0x10000000   0x00000004   Data   RW           28    .data               system_lpc17xx.o
    0x10000004   0x00000004   Data   RW          173    .data               delay.o
    0x10000008   0x00000016   Data   RW          200    .data               i2c.o
    0x1000001e   0x0000000c   Data   RW          231    .data               uart.o
    0x1000002a   0x00000002   PAD
    0x1000002c   0x00000016   Data   RW          307    .data               ctime.o
    0x10000042   0x00000002   PAD
    0x10000044   0x00000028   Data   RW          343    .data               ctimedef.o
    0x1000006c   0x00000008   Data   RW          361    .data               pwm.o
    0x10000074   0x0000000c   Data   RW          382    .data               extint.o
    0x10000080   0x00000490   Data   RW          425    .data               lcd.o
    0x10000510   0x00000008   Data   RW          454    .data               pcf8563.o
    0x10000518   0x00000001   Data   RW          476    .data               key.o
    0x10000519   0x00000003   PAD
    0x1000051c   0x00000046   Data   RW          523    .data               ccomhandle.o
    0x10000562   0x00000002   PAD
    0x10000564   0x0000001b   Data   RW          576    .data               ccompara.o
    0x1000057f   0x00000001   PAD
    0x10000580   0x00000010   Data   RW          604    .data               caddresscount.o
    0x10000590   0x00000006   Data   RW          646    .data               ckeycounter.o
    0x10000596   0x00000002   PAD
    0x10000598   0x00000008   Data   RW          664    .data               ctaskdown.o
    0x100005a0   0x00000010   Data   RW          702    .data               ctasksure.o
    0x100005b0   0x00000011   Data   RW          741    .data               runfunction.o
    0x100005c1   0x00000002   Data   RW          799    .data               crunctrl.o
    0x100005c3   0x00000001   PAD
    0x100005c4   0x00000004   Data   RW          823    .data               csysrunflag.o
    0x100005c8   0x00000010   Data   RW          842    .data               clpansctrl.o
    0x100005d8   0x00000004   Data   RW          860    .data               clpckctrl.o
    0x100005dc   0x00000004   Data   RW          878    .data               clpscanctrl.o
    0x100005e0   0x00000025   Data   RW          897    .data               ctimectrl.o
    0x10000605   0x00000001   Data   RW          922    .data               cnodeinfo.o
    0x10000606   0x00000001   Data   RW         1009    .data               ccompinten.o
    0x10000607   0x00000031   Data   RW         1113    .data               clocalset.o
    0x10000638   0x00000023   Data   RW         1181    .data               mainmenu.o
    0x1000065b   0x00000021   Data   RW         1195    .data               setmenu.o
    0x1000067c   0x00000570   Data   RW         1255    .data               cflashparam.o
    0x10000bec   0x00000030   Data   RW         1276    .data               cgrapparam.o
    0x10000c1c   0x00000002   Data   RW         1310    .data               csetcurrent.o
    0x10000c1e   0x00000002   PAD
    0x10000c20   0x000012e4   Zero   RW          230    .bss                uart.o
    0x10001f04   0x00000018   Zero   RW          475    .bss                key.o
    0x10001f1c   0x00000040   Zero   RW          521    .bss                ccomhandle.o
    0x10001f5c   0x00000104   Zero   RW          575    .bss                ccompara.o
    0x10002060   0x0000000f   Zero   RW          619    .bss                csendto195.o
    0x1000206f   0x00000001   PAD
    0x10002070   0x00000012   Zero   RW          701    .bss                ctasksure.o
    0x10002082   0x00000058   Zero   RW          740    .bss                runfunction.o
    0x100020da   0x0000000a   Zero   RW          841    .bss                clpansctrl.o
    0x100020e4   0x000003fc   Zero   RW          921    .bss                cnodeinfo.o
    0x100024e0   0x000052fe   Zero   RW         1254    .bss                cflashparam.o
    0x100077de   0x0000000a   Zero   RW         1309    .bss                csetcurrent.o
    0x100077e8   0x00000060   Zero   RW         1396    .bss                c_w.l(libspace.o)
    0x10007848   0x00000000   Zero   RW            2    HEAP                startup_lpc17xx.o
    0x10007848   0x00000200   Zero   RW            1    STACK               startup_lpc17xx.o


==============================================================================

Image component sizes


      Code (inc. data)   RO Data    RW Data    ZI Data      Debug   Object Name

      1734         44          0          0          0       1777   alarmenu.o
      1706         50          0          0          0       1868   breakdown.o
       360        128          0         16          0       3300   caddresscount.o
      1016         16          0          0          0       1140   cannotate.o
      3448        772          2         70         64      15558   ccomhandle.o
      1068        116          0         27        260       7134   ccompara.o
      1212        100          0          1          0       1800   ccompinten.o
      1912        180          0          0          0       3187   ccompreg.o
       724         46          0          0          0       1342   ccompset.o
      1148         20         65          0          0       2348   ccompstat.o
      2620         44          0          0          0       1259   cdatemod.o
      5152        126          0       1392      21246      38290   cflashparam.o
       226          8          0          0          0       1054   cgetgrap.o
       224         36          0          0          0       5621   cgpioirq.o
      1184        126          0         48          0      14990   cgrapparam.o
       468         30          0          0          0        605   checkmenu.o
      2264        106          0          0          0       4349   chistorylist.o
        20          0          0          0          0        498   cintstend.o
       216         16          0          6          0       3383   ckeycounter.o
       420          8          0          0          0       2198   cled.o
      1040         50          0         49          0       2811   clocalset.o
       200         18          0         16         10       2277   clpansctrl.o
       336          6          0          4          0       4131   clpckctrl.o
       504          6          0          4          0       5084   clpscanctrl.o
       172         16          0          0          0        461   cmodelfault.o
       512          8          0          1       1020       4958   cnodeinfo.o
         0          0          0          0          0       4156   core_cm3.o
       112         10          0          0          0        765   crelay.o
       460         12          0          2          0       2109   crunctrl.o
       140          6          0          0         15       1649   csendto195.o
       312         54          0          2         10       2879   csetcurrent.o
       384         28          0          0          0        993   csyscheck.o
       120         12          0          0          0        432   csysreset.o
       416          4          0          4          0       4768   csysrunflag.o
      1654        228          0          8          0       2960   ctaskdown.o
       448         18          0          0          0       6168   ctaskreturn.o
      4978        542          0         16         18      10283   ctasksure.o
      1686        240          0          0          0       2718   ctaskup.o
       120         12          0          0          0        432   ctestself.o
       996         60          0         22          0       7531   ctime.o
       876         22          0         37          0       4382   ctimectrl.o
       368         32          0         40          0       5587   ctimedef.o
        60          6          0          4          0       8790   delay.o
       540         50          0         12          0       8657   extint.o
       464         18          0          0          0        551   gpioinit.o
      1232         98          0         22          0       9156   i2c.o
       420         14          0          1         24       2155   key.o
      2216         26     265344       1168          0       8952   lcd.o
        64         42          0          0          0      58791   main.o
      1400         64          0         35          0       2595   mainmenu.o
      1452         12          0          8          0       4616   pcf8563.o
       304         32          0          8          0       7424   pwm.o
      2060        386          0         17         88       9864   runfunction.o
       932         12          0         33          0       2115   setmenu.o
      1452         36          0          0          0       5719   ssp.o
       688         20          0          0          0       1134   startmenu.o
        64         26        204          0        512        912   startup_lpc17xx.o
       744        234          0          0          0       1889   store_addr.o
       564         70          0          4          0      59289   system_lpc17xx.o
      1204          4          0          0          0       2381   tasklist.o
       480         20          0          0          0        723   testmenu.o
      2044        236          0         12       4836      72207   uart.o

    ----------------------------------------------------------------------
     61352       4762     265650       3104      28104     457155   Object Totals
         0          0         32          0          0          0   (incl. Generated)
        12          0          3         15          1          0   (incl. Padding)

    ----------------------------------------------------------------------

      Code (inc. data)   RO Data    RW Data    ZI Data      Debug   Library Member Name

        90          0          0          0          0          0   __dczerorl2.o
         8          0          0          0          0         68   __main.o
        52          8          0          0          0          0   __scatter.o
        28          0          0          0          0          0   __scatter_zi.o
        12          0          0          0          0         72   exit.o
         6          0          0          0          0        152   heapauxi.o
         0          0          0          0          0          0   indicate_semi.o
         6          0          0          0          0          0   libinit.o
         2          0          0          0          0          0   libinit2.o
         2          0          0          0          0          0   libshutdown.o
         2          0          0          0          0          0   libshutdown2.o
         8          4          0          0         96         68   libspace.o
         8          4          0          0          0         68   rt_fp_status_addr_intlibspace.o
        68          0          0          0          0         68   rt_memclr.o
        78          0          0          0          0         80   rt_memclr_w.o
       138          0          0          0          0         68   rt_memcpy_v6.o
       100          0          0          0          0         80   rt_memcpy_w.o
         0          0          0          0          0          0   rtentry.o
        12          0          0          0          0          0   rtentry2.o
         6          0          0          0          0          0   rtentry4.o
         2          0          0          0          0          0   rtexit.o
        10          0          0          0          0          0   rtexit2.o
        12          4          0          0          0         68   sys_exit.o
        74          0          0          0          0         80   sys_stackheap_outer.o
         2          0          0          0          0         68   use_no_semi.o
        14          0          0          0          0         76   fpinit.o

    ----------------------------------------------------------------------
       746         20          0          0         96       1016   Library Totals
         6          0          0          0          0          0   (incl. Padding)

    ----------------------------------------------------------------------

      Code (inc. data)   RO Data    RW Data    ZI Data      Debug   Library Name

       726         20          0          0         96        940   c_w.l
        14          0          0          0          0         76   fz_ws.l

    ----------------------------------------------------------------------
       746         20          0          0         96       1016   Library Totals

    ----------------------------------------------------------------------

==============================================================================


      Code (inc. data)   RO Data    RW Data    ZI Data      Debug   

     62098       4782     265650       3104      28200     451151   Grand Totals
     62098       4782     265650        980      28200     451151   ELF Image Totals (compressed)
     62098       4782     265650        980          0          0   ROM Totals

==============================================================================

    Total RO  Size (Code + RO Data)               327748 ( 320.07kB)
    Total RW  Size (RW Data + ZI Data)             31304 (  30.57kB)
    Total ROM Size (Code + RO Data + RW Data)     328728 ( 321.02kB)

==============================================================================

